TN:
SF:/usr/include/c++/11/iostream
LF:0
LH:0
end_of_record
SF:/usr/include/c++/11/tuple
FN:192,_ZNSt10_Head_baseILm0ERKcLb0EEC2ES1_
FNDA:2,_ZNSt10_Head_baseILm0ERKcLb0EEC2ES1_
FN:233,_ZNSt10_Head_baseILm0ERKcLb0EE7_M_headERS2_
FNDA:2,_ZNSt10_Head_baseILm0ERKcLb0EE7_M_headERS2_
FN:424,_ZNSt11_Tuple_implILm0EJRKcEE7_M_headERS2_
FNDA:2,_ZNSt11_Tuple_implILm0EJRKcEE7_M_headERS2_
FN:434,_ZNSt11_Tuple_implILm0EJRKcEEC2ES1_
FNDA:2,_ZNSt11_Tuple_implILm0EJRKcEEC2ES1_
FN:454,_ZNSt11_Tuple_implILm0EJRKcEEC2EOS2_
FNDA:2,_ZNSt11_Tuple_implILm0EJRKcEEC2EOS2_
FN:731,_ZNSt5tupleIJRKcEEC2ILb1ELb1EEES1_
FNDA:2,_ZNSt5tupleIJRKcEEC2ILb1ELb1EEES1_
FN:760,_ZNSt5tupleIJRKcEEC2EOS2_
FNDA:2,_ZNSt5tupleIJRKcEEC2EOS2_
FN:1381,_ZSt12__get_helperILm0ERKcJEERT0_RSt11_Tuple_implIXT_EJS2_DpT1_EE
FNDA:2,_ZSt12__get_helperILm0ERKcJEERT0_RSt11_Tuple_implIXT_EJS2_DpT1_EE
FN:1397,_ZSt3getILm0EJRKcEERNSt13tuple_elementIXT_ESt5tupleIJDpT0_EEE4typeERS6_
FNDA:2,_ZSt3getILm0EJRKcEERNSt13tuple_elementIXT_ESt5tupleIJDpT0_EEE4typeERS6_
FN:1808,_ZNSt4pairIKcNSt7__cxx1112basic_stringIcSt11char_traitsIcESaIcEEEEC2IJRS0_EJEEESt21piecewise_construct_tSt5tupleIJDpT_EESB_IJDpT0_EE
FNDA:2,_ZNSt4pairIKcNSt7__cxx1112basic_stringIcSt11char_traitsIcESaIcEEEEC2IJRS0_EJEEESt21piecewise_construct_tSt5tupleIJDpT_EESB_IJDpT0_EE
FN:1820,_ZNSt4pairIKcNSt7__cxx1112basic_stringIcSt11char_traitsIcESaIcEEEEC2IJRS0_EJLm0EEJEJEEERSt5tupleIJDpT_EERSA_IJDpT1_EESt12_Index_tupleIJXspT0_EEESJ_IJXspT2_EEE
FNDA:2,_ZNSt4pairIKcNSt7__cxx1112basic_stringIcSt11char_traitsIcESaIcEEEEC2IJRS0_EJLm0EEJEJEEERSt5tupleIJDpT_EERSA_IJDpT1_EESt12_Index_tupleIJXspT0_EEESJ_IJXspT2_EEE
FNF:11
FNH:11
DA:192,2
DA:193,2
DA:233,2
DA:424,2
DA:434,2
DA:435,2
DA:436,2
DA:454,2
DA:456,2
DA:457,2
DA:731,2
DA:733,2
DA:760,2
DA:1381,2
DA:1382,2
DA:1397,2
DA:1398,2
DA:1808,2
DA:1813,2
DA:1814,2
DA:1820,2
DA:1823,2
DA:1824,2
DA:1825,2
LF:24
LH:24
end_of_record
SF:/usr/include/c++/11/ext/type_traits.h
FN:152,_ZN9__gnu_cxx17__is_null_pointerIcEEbPT_
FNDA:0,_ZN9__gnu_cxx17__is_null_pointerIcEEbPT_
FN:152,_ZN9__gnu_cxx17__is_null_pointerIKcEEbPT_
FNDA:0,_ZN9__gnu_cxx17__is_null_pointerIKcEEbPT_
FNF:2
FNH:0
DA:152,0
DA:153,0
DA:152,0
DA:153,0
LF:4
LH:0
end_of_record
SF:/usr/include/c++/11/bits/stl_uninitialized.h
FN:85,_ZNSt20__uninitialized_copyILb0EE13__uninit_copyIN9__gnu_cxx17__normal_iteratorIPKSt6vectorIcSaIcEES4_IS6_SaIS6_EEEEPS6_EET0_T_SE_SD_
FNDA:2954,_ZNSt20__uninitialized_copyILb0EE13__uninit_copyIN9__gnu_cxx17__normal_iteratorIPKSt6vectorIcSaIcEES4_IS6_SaIS6_EEEEPS6_EET0_T_SE_SD_
FN:85,_ZNSt20__uninitialized_copyILb0EE13__uninit_copyIN9__gnu_cxx17__normal_iteratorIPKSt6vectorIS4_IcSaIcEESaIS6_EES4_IS8_SaIS8_EEEEPS8_EET0_T_SG_SF_
FNDA:702,_ZNSt20__uninitialized_copyILb0EE13__uninit_copyIN9__gnu_cxx17__normal_iteratorIPKSt6vectorIS4_IcSaIcEESaIS6_EES4_IS8_SaIS8_EEEEPS8_EET0_T_SG_SF_
FN:108,_ZNSt20__uninitialized_copyILb1EE13__uninit_copyIN9__gnu_cxx17__normal_iteratorIPKcSt6vectorIcSaIcEEEEPcEET0_T_SC_SB_
FNDA:26766,_ZNSt20__uninitialized_copyILb1EE13__uninit_copyIN9__gnu_cxx17__normal_iteratorIPKcSt6vectorIcSaIcEEEEPcEET0_T_SC_SB_
FN:108,_ZNSt20__uninitialized_copyILb1EE13__uninit_copyIN9__gnu_cxx17__normal_iteratorIPKiSt6vectorIiSaIiEEEEPiEET0_T_SC_SB_
FNDA:2,_ZNSt20__uninitialized_copyILb1EE13__uninit_copyIN9__gnu_cxx17__normal_iteratorIPKiSt6vectorIiSaIiEEEEPiEET0_T_SC_SB_
FN:126,_ZSt18uninitialized_copyIN9__gnu_cxx17__normal_iteratorIPKSt6vectorIcSaIcEES2_IS4_SaIS4_EEEEPS4_ET0_T_SC_SB_
FNDA:2954,_ZSt18uninitialized_copyIN9__gnu_cxx17__normal_iteratorIPKSt6vectorIcSaIcEES2_IS4_SaIS4_EEEEPS4_ET0_T_SC_SB_
FN:126,_ZSt18uninitialized_copyIN9__gnu_cxx17__normal_iteratorIPKSt6vectorIS2_IcSaIcEESaIS4_EES2_IS6_SaIS6_EEEEPS6_ET0_T_SE_SD_
FNDA:702,_ZSt18uninitialized_copyIN9__gnu_cxx17__normal_iteratorIPKSt6vectorIS2_IcSaIcEESaIS4_EES2_IS6_SaIS6_EEEEPS6_ET0_T_SE_SD_
FN:126,_ZSt18uninitialized_copyIN9__gnu_cxx17__normal_iteratorIPKcSt6vectorIcSaIcEEEEPcET0_T_SA_S9_
FNDA:26766,_ZSt18uninitialized_copyIN9__gnu_cxx17__normal_iteratorIPKcSt6vectorIcSaIcEEEEPcET0_T_SA_S9_
FN:126,_ZSt18uninitialized_copyIN9__gnu_cxx17__normal_iteratorIPKiSt6vectorIiSaIiEEEEPiET0_T_SA_S9_
FNDA:2,_ZSt18uninitialized_copyIN9__gnu_cxx17__normal_iteratorIPKiSt6vectorIiSaIiEEEEPiET0_T_SA_S9_
FN:230,_ZNSt22__uninitialized_fill_nILb0EE15__uninit_fill_nIPSt6vectorIcSaIcEEmS4_EET_S6_T0_RKT1_
FNDA:20,_ZNSt22__uninitialized_fill_nILb0EE15__uninit_fill_nIPSt6vectorIcSaIcEEmS4_EET_S6_T0_RKT1_
FN:253,_ZNSt22__uninitialized_fill_nILb1EE15__uninit_fill_nIPcmcEET_S3_T0_RKT1_
FNDA:20,_ZNSt22__uninitialized_fill_nILb1EE15__uninit_fill_nIPcmcEET_S3_T0_RKT1_
FN:273,_ZSt20uninitialized_fill_nIPcmcET_S1_T0_RKT1_
FNDA:20,_ZSt20uninitialized_fill_nIPcmcET_S1_T0_RKT1_
FN:273,_ZSt20uninitialized_fill_nIPSt6vectorIcSaIcEEmS2_ET_S4_T0_RKT1_
FNDA:20,_ZSt20uninitialized_fill_nIPSt6vectorIcSaIcEEmS2_ET_S4_T0_RKT1_
FN:331,_ZSt22__uninitialized_copy_aIN9__gnu_cxx17__normal_iteratorIPKSt6vectorIcSaIcEES2_IS4_SaIS4_EEEEPS4_S4_ET0_T_SC_SB_RSaIT1_E
FNDA:2954,_ZSt22__uninitialized_copy_aIN9__gnu_cxx17__normal_iteratorIPKSt6vectorIcSaIcEES2_IS4_SaIS4_EEEEPS4_S4_ET0_T_SC_SB_RSaIT1_E
FN:331,_ZSt22__uninitialized_copy_aIN9__gnu_cxx17__normal_iteratorIPKSt6vectorIS2_IcSaIcEESaIS4_EES2_IS6_SaIS6_EEEEPS6_S6_ET0_T_SE_SD_RSaIT1_E
FNDA:702,_ZSt22__uninitialized_copy_aIN9__gnu_cxx17__normal_iteratorIPKSt6vectorIS2_IcSaIcEESaIS4_EES2_IS6_SaIS6_EEEEPS6_S6_ET0_T_SE_SD_RSaIT1_E
FN:331,_ZSt22__uninitialized_copy_aIN9__gnu_cxx17__normal_iteratorIPKcSt6vectorIcSaIcEEEEPccET0_T_SA_S9_RSaIT1_E
FNDA:26766,_ZSt22__uninitialized_copy_aIN9__gnu_cxx17__normal_iteratorIPKcSt6vectorIcSaIcEEEEPccET0_T_SA_S9_RSaIT1_E
FN:331,_ZSt22__uninitialized_copy_aIN9__gnu_cxx17__normal_iteratorIPKiSt6vectorIiSaIiEEEEPiiET0_T_SA_S9_RSaIT1_E
FNDA:2,_ZSt22__uninitialized_copy_aIN9__gnu_cxx17__normal_iteratorIPKiSt6vectorIiSaIiEEEEPiiET0_T_SA_S9_RSaIT1_E
FN:408,_ZSt24__uninitialized_fill_n_aIPSt6vectorIcSaIcEEmS2_S2_ET_S4_T0_RKT1_RSaIT2_E
FNDA:20,_ZSt24__uninitialized_fill_n_aIPSt6vectorIcSaIcEEmS2_S2_ET_S4_T0_RKT1_RSaIT2_E
FN:408,_ZSt24__uninitialized_fill_n_aIPcmccET_S1_T0_RKT1_RSaIT2_E
FNDA:20,_ZSt24__uninitialized_fill_n_aIPcmccET_S1_T0_RKT1_RSaIT2_E
FN:986,_ZSt19__relocate_object_aISt6vectorIS0_IcSaIcEESaIS2_EES4_SaIS4_EEvPT_PT0_RT1_
FNDA:7,_ZSt19__relocate_object_aISt6vectorIS0_IcSaIcEESaIS2_EES4_SaIS4_EEvPT_PT0_RT1_
FN:986,_ZSt19__relocate_object_aISt4pairIiiES1_SaIS1_EEvPT_PT0_RT1_
FNDA:63,_ZSt19__relocate_object_aISt4pairIiiES1_SaIS1_EEvPT_PT0_RT1_
FN:986,_ZSt19__relocate_object_aISt6vectorIcSaIcEES2_SaIS2_EEvPT_PT0_RT1_
FNDA:0,_ZSt19__relocate_object_aISt6vectorIcSaIcEES2_SaIS2_EEvPT_PT0_RT1_
FN:1006,_ZSt14__relocate_a_1IiiENSt9enable_ifIXsrSt24__is_bitwise_relocatableIT_vE5valueEPS2_E4typeES4_S4_S4_RSaIT0_E
FNDA:204,_ZSt14__relocate_a_1IiiENSt9enable_ifIXsrSt24__is_bitwise_relocatableIT_vE5valueEPS2_E4typeES4_S4_S4_RSaIT0_E
FN:1006,_ZSt14__relocate_a_1IccENSt9enable_ifIXsrSt24__is_bitwise_relocatableIT_vE5valueEPS2_E4typeES4_S4_S4_RSaIT0_E
FNDA:0,_ZSt14__relocate_a_1IccENSt9enable_ifIXsrSt24__is_bitwise_relocatableIT_vE5valueEPS2_E4typeES4_S4_S4_RSaIT0_E
FN:1018,_ZSt14__relocate_a_1IPSt6vectorIS0_IcSaIcEESaIS2_EES5_SaIS4_EET0_T_S8_S7_RT1_
FNDA:48,_ZSt14__relocate_a_1IPSt6vectorIS0_IcSaIcEESaIS2_EES5_SaIS4_EET0_T_S8_S7_RT1_
FN:1018,_ZSt14__relocate_a_1IPSt4pairIiiES2_SaIS1_EET0_T_S5_S4_RT1_
FNDA:14,_ZSt14__relocate_a_1IPSt4pairIiiES2_SaIS1_EET0_T_S5_S4_RT1_
FN:1018,_ZSt14__relocate_a_1IPSt6vectorIcSaIcEES3_SaIS2_EET0_T_S6_S5_RT1_
FNDA:0,_ZSt14__relocate_a_1IPSt6vectorIcSaIcEES3_SaIS2_EET0_T_S6_S5_RT1_
FN:1040,_ZSt12__relocate_aIPSt6vectorIS0_IcSaIcEESaIS2_EES5_SaIS4_EET0_T_S8_S7_RT1_
FNDA:48,_ZSt12__relocate_aIPSt6vectorIS0_IcSaIcEESaIS2_EES5_SaIS4_EET0_T_S8_S7_RT1_
FN:1040,_ZSt12__relocate_aIPiS0_SaIiEET0_T_S3_S2_RT1_
FNDA:204,_ZSt12__relocate_aIPiS0_SaIiEET0_T_S3_S2_RT1_
FN:1040,_ZSt12__relocate_aIPcS0_SaIcEET0_T_S3_S2_RT1_
FNDA:0,_ZSt12__relocate_aIPcS0_SaIcEET0_T_S3_S2_RT1_
FN:1040,_ZSt12__relocate_aIPSt4pairIiiES2_SaIS1_EET0_T_S5_S4_RT1_
FNDA:14,_ZSt12__relocate_aIPSt4pairIiiES2_SaIS1_EET0_T_S5_S4_RT1_
FN:1040,_ZSt12__relocate_aIPSt6vectorIcSaIcEES3_SaIS2_EET0_T_S6_S5_RT1_
FNDA:0,_ZSt12__relocate_aIPSt6vectorIcSaIcEES3_SaIS2_EET0_T_S6_S5_RT1_
FNF:31
FNH:26
DA:85,702
DA:88,702
DA:91,1466
DA:92,764
DA:93,702
DA:95,0
DA:97,0
DA:98,0
DA:85,2954
DA:88,2954
DA:91,29540
DA:92,26586
DA:93,2954
DA:95,0
DA:97,0
DA:98,0
DA:108,2
DA:110,2
DA:108,26766
DA:110,26766
DA:126,2
DA:145,2
DA:151,2
DA:126,26766
DA:145,26766
DA:151,26766
DA:126,702
DA:145,702
DA:151,702
DA:126,2954
DA:145,2954
DA:151,2954
DA:230,20
DA:233,20
DA:236,200
DA:237,180
DA:238,20
DA:240,0
DA:242,0
DA:243,0
DA:253,20
DA:255,20
DA:273,20
DA:293,20
DA:297,20
DA:273,20
DA:293,20
DA:297,20
DA:331,2
DA:333,2
DA:331,26766
DA:333,26766
DA:331,702
DA:333,702
DA:331,2954
DA:333,2954
DA:408,20
DA:410,20
DA:408,20
DA:410,20
DA:986,0
DA:994,0
DA:995,0
DA:996,0
DA:986,63
DA:994,63
DA:995,63
DA:996,63
DA:986,7
DA:994,7
DA:995,7
DA:996,7
DA:1006,0
DA:1009,0
DA:1010,0
DA:1011,0
DA:1012,0
DA:1006,204
DA:1009,204
DA:1010,204
DA:1011,81
DA:1012,204
DA:1018,0
DA:1030,0
DA:1031,0
DA:1032,0
DA:1034,0
DA:1018,14
DA:1030,14
DA:1031,77
DA:1032,63
DA:1034,14
DA:1018,48
DA:1030,48
DA:1031,55
DA:1032,7
DA:1034,48
DA:1040,0
DA:1046,0
DA:1048,0
DA:1040,14
DA:1046,14
DA:1048,14
DA:1040,0
DA:1046,0
DA:1048,0
DA:1040,204
DA:1046,204
DA:1048,204
DA:1040,48
DA:1046,48
DA:1048,48
LF:112
LH:83
end_of_record
SF:/usr/include/c++/11/bits/move.h
FN:49,_ZSt11__addressofISt4pairIiiEEPT_RS2_
FNDA:189,_ZSt11__addressofISt4pairIiiEEPT_RS2_
FN:49,_ZSt11__addressofISt6vectorIcSaIcEEEPT_RS3_
FNDA:53532,_ZSt11__addressofISt6vectorIcSaIcEEEPT_RS3_
FN:49,_ZSt11__addressofISt6vectorIS0_IcSaIcEESaIS2_EEEPT_RS5_
FNDA:2313,_ZSt11__addressofISt6vectorIS0_IcSaIcEESaIS2_EEEPT_RS5_
FN:77,_ZSt7forwardIRPSt13_Rb_tree_nodeISt4pairIKcNSt7__cxx1112basic_stringIcSt11char_traitsIcESaIcEEEEEEOT_RNSt16remove_referenceISD_E4typeE
FNDA:1,_ZSt7forwardIRPSt13_Rb_tree_nodeISt4pairIKcNSt7__cxx1112basic_stringIcSt11char_traitsIcESaIcEEEEEEOT_RNSt16remove_referenceISD_E4typeE
FN:77,_ZSt7forwardIRiEOT_RNSt16remove_referenceIS1_E4typeE
FNDA:24200,_ZSt7forwardIRiEOT_RNSt16remove_referenceIS1_E4typeE
FN:77,_ZSt7forwardIRKSt6vectorIS0_IcSaIcEESaIS2_EEEOT_RNSt16remove_referenceIS7_E4typeE
FNDA:2316,_ZSt7forwardIRKSt6vectorIS0_IcSaIcEESaIS2_EEEOT_RNSt16remove_referenceIS7_E4typeE
FN:77,_ZSt7forwardISt4pairIiiEEOT_RNSt16remove_referenceIS2_E4typeE
FNDA:36433,_ZSt7forwardISt4pairIiiEEOT_RNSt16remove_referenceIS2_E4typeE
FN:77,_ZSt7forwardIRKiEOT_RNSt16remove_referenceIS2_E4typeE
FNDA:460,_ZSt7forwardIRKiEOT_RNSt16remove_referenceIS2_E4typeE
FN:77,_ZSt7forwardISt6vectorIS0_IcSaIcEESaIS2_EEEOT_RNSt16remove_referenceIS5_E4typeE
FNDA:14,_ZSt7forwardISt6vectorIS0_IcSaIcEESaIS2_EEEOT_RNSt16remove_referenceIS5_E4typeE
FN:77,_ZSt7forwardIRKcEOT_RNSt16remove_referenceIS2_E4typeE
FNDA:2,_ZSt7forwardIRKcEOT_RNSt16remove_referenceIS2_E4typeE
FN:77,_ZSt7forwardISt6vectorIcSaIcEEEOT_RNSt16remove_referenceIS3_E4typeE
FNDA:0,_ZSt7forwardISt6vectorIcSaIcEEEOT_RNSt16remove_referenceIS3_E4typeE
FN:77,_ZSt7forwardIRKSt21piecewise_construct_tEOT_RNSt16remove_referenceIS3_E4typeE
FNDA:10,_ZSt7forwardIRKSt21piecewise_construct_tEOT_RNSt16remove_referenceIS3_E4typeE
FN:77,_ZSt7forwardISt5tupleIJRKcEEEOT_RNSt16remove_referenceIS4_E4typeE
FNDA:10,_ZSt7forwardISt5tupleIJRKcEEEOT_RNSt16remove_referenceIS4_E4typeE
FN:77,_ZSt7forwardISt5tupleIJEEEOT_RNSt16remove_referenceIS2_E4typeE
FNDA:10,_ZSt7forwardISt5tupleIJEEEOT_RNSt16remove_referenceIS2_E4typeE
FN:77,_ZSt7forwardIiEOT_RNSt16remove_referenceIS0_E4typeE
FNDA:14,_ZSt7forwardIiEOT_RNSt16remove_referenceIS0_E4typeE
FN:77,_ZSt7forwardIRPSt18_Rb_tree_node_baseEOT_RNSt16remove_referenceIS3_E4typeE
FNDA:3,_ZSt7forwardIRPSt18_Rb_tree_node_baseEOT_RNSt16remove_referenceIS3_E4typeE
FN:77,_ZSt7forwardIRKSt6vectorIcSaIcEEEOT_RNSt16remove_referenceIS5_E4typeE
FNDA:26766,_ZSt7forwardIRKSt6vectorIcSaIcEEEOT_RNSt16remove_referenceIS5_E4typeE
FN:104,_ZSt4moveIRSaISt6vectorIS0_IcSaIcEESaIS2_EEEEONSt16remove_referenceIT_E4typeEOS8_
FNDA:0,_ZSt4moveIRSaISt6vectorIS0_IcSaIcEESaIS2_EEEEONSt16remove_referenceIT_E4typeEOS8_
FN:104,_ZSt4moveIRSt6vectorIS0_IS0_IcSaIcEESaIS2_EESaIS4_EEEONSt16remove_referenceIT_E4typeEOS9_
FNDA:0,_ZSt4moveIRSt6vectorIS0_IS0_IcSaIcEESaIS2_EESaIS4_EEEONSt16remove_referenceIT_E4typeEOS9_
FN:104,_ZSt4moveIRiEONSt16remove_referenceIT_E4typeEOS2_
FNDA:4,_ZSt4moveIRiEONSt16remove_referenceIT_E4typeEOS2_
FN:104,_ZSt4moveIRSt6vectorIcSaIcEEEONSt16remove_referenceIT_E4typeEOS5_
FNDA:0,_ZSt4moveIRSt6vectorIcSaIcEEEONSt16remove_referenceIT_E4typeEOS5_
FN:104,_ZSt4moveIRSt6vectorIS0_IcSaIcEESaIS2_EEEONSt16remove_referenceIT_E4typeEOS7_
FNDA:7,_ZSt4moveIRSt6vectorIS0_IcSaIcEESaIS2_EEEONSt16remove_referenceIT_E4typeEOS7_
FN:104,_ZSt4moveIRNSt12_Vector_baseISt6vectorIcSaIcEESaIS3_EE12_Vector_implEEONSt16remove_referenceIT_E4typeEOS9_
FNDA:14,_ZSt4moveIRNSt12_Vector_baseISt6vectorIcSaIcEESaIS3_EE12_Vector_implEEONSt16remove_referenceIT_E4typeEOS9_
FN:104,_ZSt4moveIRSt4pairIiiEEONSt16remove_referenceIT_E4typeEOS4_
FNDA:12163,_ZSt4moveIRSt4pairIiiEEONSt16remove_referenceIT_E4typeEOS4_
FN:104,_ZSt4moveIRNSt12_Vector_baseIcSaIcEE12_Vector_implEEONSt16remove_referenceIT_E4typeEOS6_
FNDA:0,_ZSt4moveIRNSt12_Vector_baseIcSaIcEE12_Vector_implEEONSt16remove_referenceIT_E4typeEOS6_
FN:104,_ZSt4moveIRSaIcEEONSt16remove_referenceIT_E4typeEOS3_
FNDA:0,_ZSt4moveIRSaIcEEONSt16remove_referenceIT_E4typeEOS3_
FNF:26
FNH:20
DA:49,189
DA:50,189
DA:49,53532
DA:50,53532
DA:49,2313
DA:50,2313
DA:77,1
DA:78,1
DA:77,26766
DA:78,26766
DA:77,3
DA:78,3
DA:77,14
DA:78,14
DA:77,10
DA:78,10
DA:77,10
DA:78,10
DA:77,10
DA:78,10
DA:77,0
DA:78,0
DA:77,2
DA:78,2
DA:77,14
DA:78,14
DA:77,460
DA:78,460
DA:77,36433
DA:78,36433
DA:77,2316
DA:78,2316
DA:77,24200
DA:78,24200
DA:104,0
DA:105,0
DA:104,0
DA:105,0
DA:104,0
DA:105,0
DA:104,4
DA:105,4
DA:104,0
DA:105,0
DA:104,7
DA:105,7
DA:104,14
DA:105,14
DA:104,12163
DA:105,12163
DA:104,0
DA:105,0
LF:52
LH:40
end_of_record
SF:/usr/include/c++/11/bits/stl_algobase.h
FN:230,_ZSt3minImERKT_S2_S2_
FNDA:306,_ZSt3minImERKT_S2_S2_
FN:254,_ZSt3maxImERKT_S2_S2_
FNDA:133,_ZSt3maxImERKT_S2_S2_
FN:313,_ZSt12__niter_baseIPSt6vectorIS0_IcSaIcEESaIS2_EEET_S6_
FNDA:144,_ZSt12__niter_baseIPSt6vectorIS0_IcSaIcEESaIS2_EEET_S6_
FN:313,_ZSt12__niter_baseIPiET_S1_
FNDA:614,_ZSt12__niter_baseIPiET_S1_
FN:313,_ZSt12__niter_baseIPcET_S1_
FNDA:26766,_ZSt12__niter_baseIPcET_S1_
FN:313,_ZSt12__niter_baseIPSt4pairIiiEET_S3_
FNDA:42,_ZSt12__niter_baseIPSt4pairIiiEET_S3_
FN:313,_ZSt12__niter_baseIPSt6vectorIcSaIcEEET_S4_
FNDA:0,_ZSt12__niter_baseIPSt6vectorIcSaIcEEET_S4_
FN:335,_ZSt12__niter_wrapIPiET_RKS1_S1_
FNDA:2,_ZSt12__niter_wrapIPiET_RKS1_S1_
FN:335,_ZSt12__niter_wrapIPcET_RKS1_S1_
FNDA:26766,_ZSt12__niter_wrapIPcET_RKS1_S1_
FN:420,_ZNSt11__copy_moveILb0ELb1ESt26random_access_iterator_tagE8__copy_mIcEEPT_PKS3_S6_S4_
FNDA:26766,_ZNSt11__copy_moveILb0ELb1ESt26random_access_iterator_tagE8__copy_mIcEEPT_PKS3_S6_S4_
FN:420,_ZNSt11__copy_moveILb0ELb1ESt26random_access_iterator_tagE8__copy_mIiEEPT_PKS3_S6_S4_
FNDA:2,_ZNSt11__copy_moveILb0ELb1ESt26random_access_iterator_tagE8__copy_mIiEEPT_PKS3_S6_S4_
FN:486,_ZSt14__copy_move_a2ILb0EPKcPcET1_T0_S4_S3_
FNDA:26766,_ZSt14__copy_move_a2ILb0EPKcPcET1_T0_S4_S3_
FN:486,_ZSt14__copy_move_a2ILb0EPKiPiET1_T0_S4_S3_
FNDA:2,_ZSt14__copy_move_a2ILb0EPKiPiET1_T0_S4_S3_
FN:521,_ZSt14__copy_move_a1ILb0EPKcPcET1_T0_S4_S3_
FNDA:26766,_ZSt14__copy_move_a1ILb0EPKcPcET1_T0_S4_S3_
FN:521,_ZSt14__copy_move_a1ILb0EPKiPiET1_T0_S4_S3_
FNDA:2,_ZSt14__copy_move_a1ILb0EPKiPiET1_T0_S4_S3_
FN:527,_ZSt13__copy_move_aILb0EN9__gnu_cxx17__normal_iteratorIPKiSt6vectorIiSaIiEEEEPiET1_T0_SA_S9_
FNDA:2,_ZSt13__copy_move_aILb0EN9__gnu_cxx17__normal_iteratorIPKiSt6vectorIiSaIiEEEEPiET1_T0_SA_S9_
FN:527,_ZSt13__copy_move_aILb0EN9__gnu_cxx17__normal_iteratorIPKcSt6vectorIcSaIcEEEEPcET1_T0_SA_S9_
FNDA:26766,_ZSt13__copy_move_aILb0EN9__gnu_cxx17__normal_iteratorIPKcSt6vectorIcSaIcEEEEPcET1_T0_SA_S9_
FN:611,_ZSt4copyIN9__gnu_cxx17__normal_iteratorIPKiSt6vectorIiSaIiEEEEPiET0_T_SA_S9_
FNDA:2,_ZSt4copyIN9__gnu_cxx17__normal_iteratorIPKiSt6vectorIiSaIiEEEEPiET0_T_SA_S9_
FN:611,_ZSt4copyIN9__gnu_cxx17__normal_iteratorIPKcSt6vectorIcSaIcEEEEPcET0_T_SA_S9_
FNDA:26766,_ZSt4copyIN9__gnu_cxx17__normal_iteratorIPKcSt6vectorIcSaIcEEEEPcET0_T_SA_S9_
FN:932,_ZSt9__fill_a1IcEN9__gnu_cxx11__enable_ifIXsrSt9__is_byteIT_E7__valueEvE6__typeEPS3_S7_RKS3_
FNDA:20,_ZSt9__fill_a1IcEN9__gnu_cxx11__enable_ifIXsrSt9__is_byteIT_E7__valueEvE6__typeEPS3_S7_RKS3_
FN:968,_ZSt8__fill_aIPccEvT_S1_RKT0_
FNDA:20,_ZSt8__fill_aIPccEvT_S1_RKT0_
FN:1010,_ZSt17__size_to_integerm
FNDA:20,_ZSt17__size_to_integerm
FN:1109,_ZSt10__fill_n_aIPcmcET_S1_T0_RKT1_St26random_access_iterator_tag
FNDA:20,_ZSt10__fill_n_aIPcmcET_S1_T0_RKT1_St26random_access_iterator_tag
FN:1144,_ZSt6fill_nIPcmcET_S1_T0_RKT1_
FNDA:20,_ZSt6fill_nIPcmcET_S1_T0_RKT1_
FNF:24
FNH:23
DA:230,306
DA:235,306
DA:236,0
DA:237,306
DA:254,133
DA:259,133
DA:260,43
DA:261,90
DA:313,0
DA:315,0
DA:313,42
DA:315,42
DA:313,26766
DA:315,26766
DA:313,614
DA:315,614
DA:313,144
DA:315,144
DA:335,2
DA:336,2
DA:335,26766
DA:336,26766
DA:420,2
DA:429,2
DA:430,2
DA:431,2
DA:432,2
DA:420,26766
DA:429,26766
DA:430,26766
DA:431,26766
DA:432,26766
DA:486,2
DA:495,2
DA:486,26766
DA:495,26766
DA:521,2
DA:522,2
DA:521,26766
DA:522,26766
DA:527,2
DA:529,2
DA:532,2
DA:527,26766
DA:529,26766
DA:532,26766
DA:611,2
DA:620,2
DA:611,26766
DA:620,26766
DA:932,20
DA:934,20
DA:943,20
DA:944,20
DA:945,20
DA:968,20
DA:969,20
DA:1010,20
DA:1109,20
DA:1115,20
DA:1116,0
DA:1120,20
DA:1121,20
DA:1144,20
DA:1149,20
DA:1150,40
LF:66
LH:62
end_of_record
SF:/usr/include/c++/11/ext/aligned_buffer.h
FN:64,_ZN9__gnu_cxx16__aligned_membufISt4pairIKcNSt7__cxx1112basic_stringIcSt11char_traitsIcESaIcEEEEE7_M_addrEv
FNDA:15,_ZN9__gnu_cxx16__aligned_membufISt4pairIKcNSt7__cxx1112basic_stringIcSt11char_traitsIcESaIcEEEEE7_M_addrEv
FN:68,_ZNK9__gnu_cxx16__aligned_membufISt4pairIKcNSt7__cxx1112basic_stringIcSt11char_traitsIcESaIcEEEEE7_M_addrEv
FNDA:20,_ZNK9__gnu_cxx16__aligned_membufISt4pairIKcNSt7__cxx1112basic_stringIcSt11char_traitsIcESaIcEEEEE7_M_addrEv
FN:72,_ZN9__gnu_cxx16__aligned_membufISt4pairIKcNSt7__cxx1112basic_stringIcSt11char_traitsIcESaIcEEEEE6_M_ptrEv
FNDA:15,_ZN9__gnu_cxx16__aligned_membufISt4pairIKcNSt7__cxx1112basic_stringIcSt11char_traitsIcESaIcEEEEE6_M_ptrEv
FN:76,_ZNK9__gnu_cxx16__aligned_membufISt4pairIKcNSt7__cxx1112basic_stringIcSt11char_traitsIcESaIcEEEEE6_M_ptrEv
FNDA:20,_ZNK9__gnu_cxx16__aligned_membufISt4pairIKcNSt7__cxx1112basic_stringIcSt11char_traitsIcESaIcEEEEE6_M_ptrEv
FNF:4
FNH:4
DA:64,15
DA:65,15
DA:68,20
DA:69,20
DA:72,15
DA:73,15
DA:76,20
DA:77,20
LF:8
LH:8
end_of_record
SF:/usr/include/c++/11/bits/ios_base.h
FN:129,_ZStorSt13_Ios_OpenmodeS_
FNDA:2,_ZStorSt13_Ios_OpenmodeS_
FNF:1
FNH:1
DA:129,2
DA:130,2
LF:2
LH:2
end_of_record
SF:/usr/include/c++/11/ext/string_conversions.h
FN:54,_ZN9__gnu_cxx6__stoaIlicJiEEET0_PFT_PKT1_PPS3_DpT2_EPKcS5_PmS9_
FNDA:2,_ZN9__gnu_cxx6__stoaIlicJiEEET0_PFT_PKT1_PPS3_DpT2_EPKcS5_PmS9_
FN:63,_ZZN9__gnu_cxx6__stoaIlicJiEEET0_PFT_PKT1_PPS3_DpT2_EPKcS5_PmS9_EN11_Save_errnoC2Ev
FNDA:2,_ZZN9__gnu_cxx6__stoaIlicJiEEET0_PFT_PKT1_PPS3_DpT2_EPKcS5_PmS9_EN11_Save_errnoC2Ev
FN:64,_ZZN9__gnu_cxx6__stoaIlicJiEEET0_PFT_PKT1_PPS3_DpT2_EPKcS5_PmS9_EN11_Save_errnoD2Ev
FNDA:2,_ZZN9__gnu_cxx6__stoaIlicJiEEET0_PFT_PKT1_PPS3_DpT2_EPKcS5_PmS9_EN11_Save_errnoD2Ev
FN:73,_ZZN9__gnu_cxx6__stoaIlicJiEEET0_PFT_PKT1_PPS3_DpT2_EPKcS5_PmS9_EN10_Range_chk6_S_chkElSt17integral_constantIbLb1EE
FNDA:2,_ZZN9__gnu_cxx6__stoaIlicJiEEET0_PFT_PKT1_PPS3_DpT2_EPKcS5_PmS9_EN10_Range_chk6_S_chkElSt17integral_constantIbLb1EE
FNF:4
FNH:4
DA:54,2
DA:63,2
DA:64,2
DA:66,2
DA:73,2
DA:76,2
DA:80,2
DA:82,2
DA:83,0
DA:84,4
DA:85,2
DA:86,0
DA:88,2
DA:90,2
DA:91,0
DA:93,2
DA:94,2
LF:17
LH:14
end_of_record
SF:/usr/include/c++/11/bits/stl_function.h
FN:399,_ZNKSt4lessIcEclERKcS2_
FNDA:19,_ZNKSt4lessIcEclERKcS2_
FN:1174,_ZNKSt10_Select1stISt4pairIKcNSt7__cxx1112basic_stringIcSt11char_traitsIcESaIcEEEEEclERKS8_
FNDA:20,_ZNKSt10_Select1stISt4pairIKcNSt7__cxx1112basic_stringIcSt11char_traitsIcESaIcEEEEEclERKS8_
FNF:2
FNH:2
DA:399,19
DA:400,19
DA:1174,20
DA:1175,20
LF:4
LH:4
end_of_record
SF:/usr/include/c++/11/ext/new_allocator.h
FN:79,_ZN9__gnu_cxx13new_allocatorIcEC2Ev
FNDA:0,_ZN9__gnu_cxx13new_allocatorIcEC2Ev
FN:79,_ZN9__gnu_cxx13new_allocatorIiEC2Ev
FNDA:22,_ZN9__gnu_cxx13new_allocatorIiEC2Ev
FN:79,_ZN9__gnu_cxx13new_allocatorISt4pairIiiEEC2Ev
FNDA:1,_ZN9__gnu_cxx13new_allocatorISt4pairIiiEEC2Ev
FN:79,_ZN9__gnu_cxx13new_allocatorISt6vectorIcSaIcEEEC2Ev
FNDA:20,_ZN9__gnu_cxx13new_allocatorISt6vectorIcSaIcEEEC2Ev
FN:79,_ZN9__gnu_cxx13new_allocatorISt6vectorIS1_IcSaIcEESaIS3_EEEC2Ev
FNDA:22,_ZN9__gnu_cxx13new_allocatorISt6vectorIS1_IcSaIcEESaIS3_EEEC2Ev
FN:79,_ZN9__gnu_cxx13new_allocatorISt13_Rb_tree_nodeISt4pairIKcNSt7__cxx1112basic_stringIcSt11char_traitsIcESaIcEEEEEEC2Ev
FNDA:1,_ZN9__gnu_cxx13new_allocatorISt13_Rb_tree_nodeISt4pairIKcNSt7__cxx1112basic_stringIcSt11char_traitsIcESaIcEEEEEEC2Ev
FN:82,_ZN9__gnu_cxx13new_allocatorIiEC2ERKS1_
FNDA:4,_ZN9__gnu_cxx13new_allocatorIiEC2ERKS1_
FN:82,_ZN9__gnu_cxx13new_allocatorISt6vectorIcSaIcEEEC2ERKS4_
FNDA:5955,_ZN9__gnu_cxx13new_allocatorISt6vectorIcSaIcEEEC2ERKS4_
FN:82,_ZN9__gnu_cxx13new_allocatorISt6vectorIS1_IcSaIcEESaIS3_EEEC2ERKS6_
FNDA:1404,_ZN9__gnu_cxx13new_allocatorISt6vectorIS1_IcSaIcEESaIS3_EEEC2ERKS6_
FN:82,_ZN9__gnu_cxx13new_allocatorIcEC2ERKS1_
FNDA:0,_ZN9__gnu_cxx13new_allocatorIcEC2ERKS1_
FN:89,_ZN9__gnu_cxx13new_allocatorIiED2Ev
FNDA:26,_ZN9__gnu_cxx13new_allocatorIiED2Ev
FN:89,_ZN9__gnu_cxx13new_allocatorISt13_Rb_tree_nodeISt4pairIKcNSt7__cxx1112basic_stringIcSt11char_traitsIcESaIcEEEEEED2Ev
FNDA:1,_ZN9__gnu_cxx13new_allocatorISt13_Rb_tree_nodeISt4pairIKcNSt7__cxx1112basic_stringIcSt11char_traitsIcESaIcEEEEEED2Ev
FN:89,_ZN9__gnu_cxx13new_allocatorISt6vectorIcSaIcEEED2Ev
FNDA:5975,_ZN9__gnu_cxx13new_allocatorISt6vectorIcSaIcEEED2Ev
FN:89,_ZN9__gnu_cxx13new_allocatorISt4pairIiiEED2Ev
FNDA:1,_ZN9__gnu_cxx13new_allocatorISt4pairIiiEED2Ev
FN:89,_ZN9__gnu_cxx13new_allocatorISt6vectorIS1_IcSaIcEESaIS3_EEED2Ev
FNDA:1426,_ZN9__gnu_cxx13new_allocatorISt6vectorIS1_IcSaIcEESaIS3_EEED2Ev
FN:89,_ZN9__gnu_cxx13new_allocatorIcED2Ev
FNDA:0,_ZN9__gnu_cxx13new_allocatorIcED2Ev
FN:103,_ZN9__gnu_cxx13new_allocatorIcE8allocateEmPKv
FNDA:26786,_ZN9__gnu_cxx13new_allocatorIcE8allocateEmPKv
FN:103,_ZN9__gnu_cxx13new_allocatorIiE8allocateEmPKv
FNDA:104,_ZN9__gnu_cxx13new_allocatorIiE8allocateEmPKv
FN:103,_ZN9__gnu_cxx13new_allocatorISt6vectorIS1_IcSaIcEESaIS3_EEE8allocateEmPKv
FNDA:726,_ZN9__gnu_cxx13new_allocatorISt6vectorIS1_IcSaIcEESaIS3_EEE8allocateEmPKv
FN:103,_ZN9__gnu_cxx13new_allocatorISt6vectorIcSaIcEEE8allocateEmPKv
FNDA:2974,_ZN9__gnu_cxx13new_allocatorISt6vectorIcSaIcEEE8allocateEmPKv
FN:103,_ZN9__gnu_cxx13new_allocatorISt4pairIiiEE8allocateEmPKv
FNDA:7,_ZN9__gnu_cxx13new_allocatorISt4pairIiiEE8allocateEmPKv
FN:103,_ZN9__gnu_cxx13new_allocatorISt13_Rb_tree_nodeISt4pairIKcNSt7__cxx1112basic_stringIcSt11char_traitsIcESaIcEEEEEE8allocateEmPKv
FNDA:2,_ZN9__gnu_cxx13new_allocatorISt13_Rb_tree_nodeISt4pairIKcNSt7__cxx1112basic_stringIcSt11char_traitsIcESaIcEEEEEE8allocateEmPKv
FN:132,_ZN9__gnu_cxx13new_allocatorIcE10deallocateEPcm
FNDA:26786,_ZN9__gnu_cxx13new_allocatorIcE10deallocateEPcm
FN:132,_ZN9__gnu_cxx13new_allocatorISt6vectorIS1_IcSaIcEESaIS3_EEE10deallocateEPS5_m
FNDA:726,_ZN9__gnu_cxx13new_allocatorISt6vectorIS1_IcSaIcEESaIS3_EEE10deallocateEPS5_m
FN:132,_ZN9__gnu_cxx13new_allocatorISt4pairIiiEE10deallocateEPS2_m
FNDA:7,_ZN9__gnu_cxx13new_allocatorISt4pairIiiEE10deallocateEPS2_m
FN:132,_ZN9__gnu_cxx13new_allocatorISt6vectorIcSaIcEEE10deallocateEPS3_m
FNDA:2974,_ZN9__gnu_cxx13new_allocatorISt6vectorIcSaIcEEE10deallocateEPS3_m
FN:132,_ZN9__gnu_cxx13new_allocatorISt13_Rb_tree_nodeISt4pairIKcNSt7__cxx1112basic_stringIcSt11char_traitsIcESaIcEEEEEE10deallocateEPSB_m
FNDA:2,_ZN9__gnu_cxx13new_allocatorISt13_Rb_tree_nodeISt4pairIKcNSt7__cxx1112basic_stringIcSt11char_traitsIcESaIcEEEEEE10deallocateEPSB_m
FN:132,_ZN9__gnu_cxx13new_allocatorIiE10deallocateEPim
FNDA:104,_ZN9__gnu_cxx13new_allocatorIiE10deallocateEPim
FN:154,_ZNK9__gnu_cxx13new_allocatorIcE8max_sizeEv
FNDA:20,_ZNK9__gnu_cxx13new_allocatorIcE8max_sizeEv
FN:154,_ZNK9__gnu_cxx13new_allocatorIiE8max_sizeEv
FNDA:204,_ZNK9__gnu_cxx13new_allocatorIiE8max_sizeEv
FN:154,_ZNK9__gnu_cxx13new_allocatorISt6vectorIS1_IcSaIcEESaIS3_EEE8max_sizeEv
FNDA:48,_ZNK9__gnu_cxx13new_allocatorISt6vectorIS1_IcSaIcEESaIS3_EEE8max_sizeEv
FN:154,_ZNK9__gnu_cxx13new_allocatorISt6vectorIcSaIcEEE8max_sizeEv
FNDA:20,_ZNK9__gnu_cxx13new_allocatorISt6vectorIcSaIcEEE8max_sizeEv
FN:154,_ZNK9__gnu_cxx13new_allocatorISt4pairIiiEE8max_sizeEv
FNDA:14,_ZNK9__gnu_cxx13new_allocatorISt4pairIiiEE8max_sizeEv
FN:160,_ZN9__gnu_cxx13new_allocatorIiE9constructIiJiEEEvPT_DpOT0_
FNDA:4,_ZN9__gnu_cxx13new_allocatorIiE9constructIiJiEEEvPT_DpOT0_
FN:160,_ZN9__gnu_cxx13new_allocatorISt4pairIiiEE9constructIS2_JS2_EEEvPT_DpOT0_
FNDA:12163,_ZN9__gnu_cxx13new_allocatorISt4pairIiiEE9constructIS2_JS2_EEEvPT_DpOT0_
FN:160,_ZN9__gnu_cxx13new_allocatorISt13_Rb_tree_nodeISt4pairIKcNSt7__cxx1112basic_stringIcSt11char_traitsIcESaIcEEEEEE9constructISA_JRKSt21piecewise_construct_tSt5tupleIJRS3_EESH_IJEEEEEvPT_DpOT0_
FNDA:2,_ZN9__gnu_cxx13new_allocatorISt13_Rb_tree_nodeISt4pairIKcNSt7__cxx1112basic_stringIcSt11char_traitsIcESaIcEEEEEE9constructISA_JRKSt21piecewise_construct_tSt5tupleIJRS3_EESH_IJEEEEEvPT_DpOT0_
FN:160,_ZN9__gnu_cxx13new_allocatorISt6vectorIS1_IcSaIcEESaIS3_EEE9constructIS5_JRKS5_EEEvPT_DpOT0_
FNDA:764,_ZN9__gnu_cxx13new_allocatorISt6vectorIS1_IcSaIcEESaIS3_EEE9constructIS5_JRKS5_EEEvPT_DpOT0_
FN:160,_ZN9__gnu_cxx13new_allocatorISt6vectorIS1_IcSaIcEESaIS3_EEE9constructIS5_JS5_EEEvPT_DpOT0_
FNDA:7,_ZN9__gnu_cxx13new_allocatorISt6vectorIS1_IcSaIcEESaIS3_EEE9constructIS5_JS5_EEEvPT_DpOT0_
FN:160,_ZN9__gnu_cxx13new_allocatorISt6vectorIcSaIcEEE9constructIS3_JS3_EEEvPT_DpOT0_
FNDA:0,_ZN9__gnu_cxx13new_allocatorISt6vectorIcSaIcEEE9constructIS3_JS3_EEEvPT_DpOT0_
FN:160,_ZN9__gnu_cxx13new_allocatorIiE9constructIiJRKiEEEvPT_DpOT0_
FNDA:180,_ZN9__gnu_cxx13new_allocatorIiE9constructIiJRKiEEEvPT_DpOT0_
FN:160,_ZN9__gnu_cxx13new_allocatorIcE9constructIcJRKcEEEvPT_DpOT0_
FNDA:0,_ZN9__gnu_cxx13new_allocatorIcE9constructIcJRKcEEEvPT_DpOT0_
FN:166,_ZN9__gnu_cxx13new_allocatorISt4pairIiiEE7destroyIS2_EEvPT_
FNDA:63,_ZN9__gnu_cxx13new_allocatorISt4pairIiiEE7destroyIS2_EEvPT_
FN:166,_ZN9__gnu_cxx13new_allocatorISt6vectorIcSaIcEEE7destroyIS3_EEvPT_
FNDA:0,_ZN9__gnu_cxx13new_allocatorISt6vectorIcSaIcEEE7destroyIS3_EEvPT_
FN:166,_ZN9__gnu_cxx13new_allocatorISt13_Rb_tree_nodeISt4pairIKcNSt7__cxx1112basic_stringIcSt11char_traitsIcESaIcEEEEEE7destroyISA_EEvPT_
FNDA:2,_ZN9__gnu_cxx13new_allocatorISt13_Rb_tree_nodeISt4pairIKcNSt7__cxx1112basic_stringIcSt11char_traitsIcESaIcEEEEEE7destroyISA_EEvPT_
FN:166,_ZN9__gnu_cxx13new_allocatorISt6vectorIS1_IcSaIcEESaIS3_EEE7destroyIS5_EEvPT_
FNDA:7,_ZN9__gnu_cxx13new_allocatorISt6vectorIS1_IcSaIcEESaIS3_EEE7destroyIS5_EEvPT_
FN:197,_ZNK9__gnu_cxx13new_allocatorIiE11_M_max_sizeEv
FNDA:308,_ZNK9__gnu_cxx13new_allocatorIiE11_M_max_sizeEv
FN:197,_ZNK9__gnu_cxx13new_allocatorISt6vectorIcSaIcEEE11_M_max_sizeEv
FNDA:2994,_ZNK9__gnu_cxx13new_allocatorISt6vectorIcSaIcEEE11_M_max_sizeEv
FN:197,_ZNK9__gnu_cxx13new_allocatorISt4pairIiiEE11_M_max_sizeEv
FNDA:21,_ZNK9__gnu_cxx13new_allocatorISt4pairIiiEE11_M_max_sizeEv
FN:197,_ZNK9__gnu_cxx13new_allocatorISt13_Rb_tree_nodeISt4pairIKcNSt7__cxx1112basic_stringIcSt11char_traitsIcESaIcEEEEEE11_M_max_sizeEv
FNDA:2,_ZNK9__gnu_cxx13new_allocatorISt13_Rb_tree_nodeISt4pairIKcNSt7__cxx1112basic_stringIcSt11char_traitsIcESaIcEEEEEE11_M_max_sizeEv
FN:197,_ZNK9__gnu_cxx13new_allocatorISt6vectorIS1_IcSaIcEESaIS3_EEE11_M_max_sizeEv
FNDA:774,_ZNK9__gnu_cxx13new_allocatorISt6vectorIS1_IcSaIcEESaIS3_EEE11_M_max_sizeEv
FN:197,_ZNK9__gnu_cxx13new_allocatorIcE11_M_max_sizeEv
FNDA:26806,_ZNK9__gnu_cxx13new_allocatorIcE11_M_max_sizeEv
FNF:51
FNH:45
DA:79,1
DA:79,22
DA:79,1
DA:79,22
DA:79,20
DA:79,0
DA:82,0
DA:82,1404
DA:82,4
DA:82,5955
DA:89,1
DA:89,26
DA:89,5975
DA:89,1
DA:89,1426
DA:89,0
DA:103,2
DA:111,2
DA:115,0
DA:116,0
DA:117,0
DA:127,2
DA:103,7
DA:111,7
DA:115,0
DA:116,0
DA:117,0
DA:127,7
DA:103,2974
DA:111,2974
DA:115,0
DA:116,0
DA:117,0
DA:127,2974
DA:103,104
DA:111,104
DA:115,0
DA:116,0
DA:117,0
DA:127,104
DA:103,726
DA:111,726
DA:115,0
DA:116,0
DA:117,0
DA:127,726
DA:103,26786
DA:111,26786
DA:117,0
DA:127,26786
DA:132,2
DA:145,2
DA:132,26786
DA:145,26786
DA:132,104
DA:145,104
DA:132,2974
DA:145,2974
DA:132,7
DA:145,7
DA:132,726
DA:145,726
DA:154,14
DA:155,14
DA:154,204
DA:155,204
DA:154,48
DA:155,48
DA:154,20
DA:155,20
DA:154,20
DA:155,20
DA:160,2
DA:162,2
DA:160,4
DA:162,4
DA:160,0
DA:162,0
DA:160,7
DA:162,7
DA:160,12163
DA:162,12163
DA:160,0
DA:162,0
DA:160,180
DA:162,180
DA:160,764
DA:162,764
DA:166,2
DA:168,2
DA:166,0
DA:168,0
DA:166,63
DA:168,63
DA:166,7
DA:168,7
DA:197,2
DA:200,2
DA:197,21
DA:200,21
DA:197,2994
DA:200,2994
DA:197,308
DA:200,308
DA:197,774
DA:200,774
DA:197,26806
DA:200,26806
LF:108
LH:83
end_of_record
SF:/usr/include/c++/11/bits/alloc_traits.h
FN:463,_ZNSt16allocator_traitsISaISt13_Rb_tree_nodeISt4pairIKcNSt7__cxx1112basic_stringIcSt11char_traitsIcESaIcEEEEEEE8allocateERSB_m
FNDA:2,_ZNSt16allocator_traitsISaISt13_Rb_tree_nodeISt4pairIKcNSt7__cxx1112basic_stringIcSt11char_traitsIcESaIcEEEEEEE8allocateERSB_m
FN:463,_ZNSt16allocator_traitsISaIcEE8allocateERS0_m
FNDA:26786,_ZNSt16allocator_traitsISaIcEE8allocateERS0_m
FN:463,_ZNSt16allocator_traitsISaISt4pairIiiEEE8allocateERS2_m
FNDA:7,_ZNSt16allocator_traitsISaISt4pairIiiEEE8allocateERS2_m
FN:463,_ZNSt16allocator_traitsISaISt6vectorIcSaIcEEEE8allocateERS3_m
FNDA:2974,_ZNSt16allocator_traitsISaISt6vectorIcSaIcEEEE8allocateERS3_m
FN:463,_ZNSt16allocator_traitsISaISt6vectorIS0_IcSaIcEESaIS2_EEEE8allocateERS5_m
FNDA:726,_ZNSt16allocator_traitsISaISt6vectorIS0_IcSaIcEESaIS2_EEEE8allocateERS5_m
FN:463,_ZNSt16allocator_traitsISaIiEE8allocateERS0_m
FNDA:104,_ZNSt16allocator_traitsISaIiEE8allocateERS0_m
FN:495,_ZNSt16allocator_traitsISaISt6vectorIS0_IcSaIcEESaIS2_EEEE10deallocateERS5_PS4_m
FNDA:726,_ZNSt16allocator_traitsISaISt6vectorIS0_IcSaIcEESaIS2_EEEE10deallocateERS5_PS4_m
FN:495,_ZNSt16allocator_traitsISaISt6vectorIcSaIcEEEE10deallocateERS3_PS2_m
FNDA:2974,_ZNSt16allocator_traitsISaISt6vectorIcSaIcEEEE10deallocateERS3_PS2_m
FN:495,_ZNSt16allocator_traitsISaIiEE10deallocateERS0_Pim
FNDA:104,_ZNSt16allocator_traitsISaIiEE10deallocateERS0_Pim
FN:495,_ZNSt16allocator_traitsISaIcEE10deallocateERS0_Pcm
FNDA:26786,_ZNSt16allocator_traitsISaIcEE10deallocateERS0_Pcm
FN:495,_ZNSt16allocator_traitsISaISt4pairIiiEEE10deallocateERS2_PS1_m
FNDA:7,_ZNSt16allocator_traitsISaISt4pairIiiEEE10deallocateERS2_PS1_m
FN:495,_ZNSt16allocator_traitsISaISt13_Rb_tree_nodeISt4pairIKcNSt7__cxx1112basic_stringIcSt11char_traitsIcESaIcEEEEEEE10deallocateERSB_PSA_m
FNDA:2,_ZNSt16allocator_traitsISaISt13_Rb_tree_nodeISt4pairIKcNSt7__cxx1112basic_stringIcSt11char_traitsIcESaIcEEEEEEE10deallocateERSB_PSA_m
FN:511,_ZNSt16allocator_traitsISaIcEE9constructIcJRKcEEEvRS0_PT_DpOT0_
FNDA:0,_ZNSt16allocator_traitsISaIcEE9constructIcJRKcEEEvRS0_PT_DpOT0_
FN:511,_ZNSt16allocator_traitsISaIiEE9constructIiJiEEEvRS0_PT_DpOT0_
FNDA:4,_ZNSt16allocator_traitsISaIiEE9constructIiJiEEEvRS0_PT_DpOT0_
FN:511,_ZNSt16allocator_traitsISaISt6vectorIcSaIcEEEE9constructIS2_JS2_EEEvRS3_PT_DpOT0_
FNDA:0,_ZNSt16allocator_traitsISaISt6vectorIcSaIcEEEE9constructIS2_JS2_EEEvRS3_PT_DpOT0_
FN:511,_ZNSt16allocator_traitsISaISt4pairIiiEEE9constructIS1_JS1_EEEvRS2_PT_DpOT0_
FNDA:12163,_ZNSt16allocator_traitsISaISt4pairIiiEEE9constructIS1_JS1_EEEvRS2_PT_DpOT0_
FN:511,_ZNSt16allocator_traitsISaISt6vectorIS0_IcSaIcEESaIS2_EEEE9constructIS4_JS4_EEEvRS5_PT_DpOT0_
FNDA:7,_ZNSt16allocator_traitsISaISt6vectorIS0_IcSaIcEESaIS2_EEEE9constructIS4_JS4_EEEvRS5_PT_DpOT0_
FN:511,_ZNSt16allocator_traitsISaISt13_Rb_tree_nodeISt4pairIKcNSt7__cxx1112basic_stringIcSt11char_traitsIcESaIcEEEEEEE9constructIS9_JRKSt21piecewise_construct_tSt5tupleIJRS2_EESH_IJEEEEEvRSB_PT_DpOT0_
FNDA:2,_ZNSt16allocator_traitsISaISt13_Rb_tree_nodeISt4pairIKcNSt7__cxx1112basic_stringIcSt11char_traitsIcESaIcEEEEEEE9constructIS9_JRKSt21piecewise_construct_tSt5tupleIJRS2_EESH_IJEEEEEvRSB_PT_DpOT0_
FN:511,_ZNSt16allocator_traitsISaIiEE9constructIiJRKiEEEvRS0_PT_DpOT0_
FNDA:180,_ZNSt16allocator_traitsISaIiEE9constructIiJRKiEEEvRS0_PT_DpOT0_
FN:511,_ZNSt16allocator_traitsISaISt6vectorIS0_IcSaIcEESaIS2_EEEE9constructIS4_JRKS4_EEEvRS5_PT_DpOT0_
FNDA:764,_ZNSt16allocator_traitsISaISt6vectorIS0_IcSaIcEESaIS2_EEEE9constructIS4_JRKS4_EEEvRS5_PT_DpOT0_
FN:531,_ZNSt16allocator_traitsISaISt4pairIiiEEE7destroyIS1_EEvRS2_PT_
FNDA:63,_ZNSt16allocator_traitsISaISt4pairIiiEEE7destroyIS1_EEvRS2_PT_
FN:531,_ZNSt16allocator_traitsISaISt6vectorIcSaIcEEEE7destroyIS2_EEvRS3_PT_
FNDA:0,_ZNSt16allocator_traitsISaISt6vectorIcSaIcEEEE7destroyIS2_EEvRS3_PT_
FN:531,_ZNSt16allocator_traitsISaISt13_Rb_tree_nodeISt4pairIKcNSt7__cxx1112basic_stringIcSt11char_traitsIcESaIcEEEEEEE7destroyIS9_EEvRSB_PT_
FNDA:2,_ZNSt16allocator_traitsISaISt13_Rb_tree_nodeISt4pairIKcNSt7__cxx1112basic_stringIcSt11char_traitsIcESaIcEEEEEEE7destroyIS9_EEvRSB_PT_
FN:531,_ZNSt16allocator_traitsISaISt6vectorIS0_IcSaIcEESaIS2_EEEE7destroyIS4_EEvRS5_PT_
FNDA:7,_ZNSt16allocator_traitsISaISt6vectorIS0_IcSaIcEESaIS2_EEEE7destroyIS4_EEvRS5_PT_
FN:547,_ZNSt16allocator_traitsISaIiEE8max_sizeERKS0_
FNDA:204,_ZNSt16allocator_traitsISaIiEE8max_sizeERKS0_
FN:547,_ZNSt16allocator_traitsISaIcEE8max_sizeERKS0_
FNDA:20,_ZNSt16allocator_traitsISaIcEE8max_sizeERKS0_
FN:547,_ZNSt16allocator_traitsISaISt6vectorIcSaIcEEEE8max_sizeERKS3_
FNDA:20,_ZNSt16allocator_traitsISaISt6vectorIcSaIcEEEE8max_sizeERKS3_
FN:547,_ZNSt16allocator_traitsISaISt6vectorIS0_IcSaIcEESaIS2_EEEE8max_sizeERKS5_
FNDA:48,_ZNSt16allocator_traitsISaISt6vectorIS0_IcSaIcEESaIS2_EEEE8max_sizeERKS5_
FN:547,_ZNSt16allocator_traitsISaISt4pairIiiEEE8max_sizeERKS2_
FNDA:14,_ZNSt16allocator_traitsISaISt4pairIiiEEE8max_sizeERKS2_
FN:562,_ZNSt16allocator_traitsISaISt6vectorIS0_IcSaIcEESaIS2_EEEE37select_on_container_copy_constructionERKS5_
FNDA:702,_ZNSt16allocator_traitsISaISt6vectorIS0_IcSaIcEESaIS2_EEEE37select_on_container_copy_constructionERKS5_
FN:562,_ZNSt16allocator_traitsISaIcEE37select_on_container_copy_constructionERKS0_
FNDA:26766,_ZNSt16allocator_traitsISaIcEE37select_on_container_copy_constructionERKS0_
FN:562,_ZNSt16allocator_traitsISaIiEE37select_on_container_copy_constructionERKS0_
FNDA:2,_ZNSt16allocator_traitsISaIiEE37select_on_container_copy_constructionERKS0_
FN:562,_ZNSt16allocator_traitsISaISt6vectorIcSaIcEEEE37select_on_container_copy_constructionERKS3_
FNDA:2954,_ZNSt16allocator_traitsISaISt6vectorIcSaIcEEEE37select_on_container_copy_constructionERKS3_
FN:710,_ZSt15__alloc_on_moveISaISt6vectorIS0_IcSaIcEESaIS2_EEEEvRT_S7_
FNDA:0,_ZSt15__alloc_on_moveISaISt6vectorIS0_IcSaIcEESaIS2_EEEEvRT_S7_
FN:845,_ZSt8_DestroyIPiiEvT_S1_RSaIT0_E
FNDA:26,_ZSt8_DestroyIPiiEvT_S1_RSaIT0_E
FN:845,_ZSt8_DestroyIPccEvT_S1_RSaIT0_E
FNDA:26786,_ZSt8_DestroyIPccEvT_S1_RSaIT0_E
FN:845,_ZSt8_DestroyIPSt6vectorIcSaIcEES2_EvT_S4_RSaIT0_E
FNDA:2981,_ZSt8_DestroyIPSt6vectorIcSaIcEES2_EvT_S4_RSaIT0_E
FN:845,_ZSt8_DestroyIPSt4pairIiiES1_EvT_S3_RSaIT0_E
FNDA:683,_ZSt8_DestroyIPSt4pairIiiES1_EvT_S3_RSaIT0_E
FN:845,_ZSt8_DestroyIPSt6vectorIS0_IcSaIcEESaIS2_EES4_EvT_S6_RSaIT0_E
FNDA:1406,_ZSt8_DestroyIPSt6vectorIS0_IcSaIcEESaIS2_EES4_EvT_S6_RSaIT0_E
FNF:39
FNH:35
DA:463,2
DA:464,2
DA:463,7
DA:464,7
DA:463,2974
DA:464,2974
DA:463,104
DA:464,104
DA:463,726
DA:464,726
DA:463,26786
DA:464,26786
DA:495,2
DA:496,2
DA:495,26786
DA:496,26786
DA:495,104
DA:496,104
DA:495,2974
DA:496,2974
DA:495,7
DA:496,7
DA:495,726
DA:496,726
DA:511,2
DA:516,2
DA:520,2
DA:511,4
DA:516,4
DA:520,4
DA:511,0
DA:516,0
DA:520,0
DA:511,7
DA:516,7
DA:520,7
DA:511,12163
DA:516,12163
DA:520,12163
DA:511,0
DA:516,0
DA:520,0
DA:511,180
DA:516,180
DA:520,180
DA:511,764
DA:516,764
DA:520,764
DA:531,2
DA:535,2
DA:539,2
DA:531,0
DA:535,0
DA:539,0
DA:531,63
DA:535,63
DA:539,63
DA:531,7
DA:535,7
DA:539,7
DA:547,14
DA:550,14
DA:547,204
DA:550,204
DA:547,48
DA:550,48
DA:547,20
DA:550,20
DA:547,20
DA:550,20
DA:562,2
DA:563,2
DA:562,26766
DA:563,26766
DA:562,702
DA:563,702
DA:562,2954
DA:563,2954
DA:710,0
DA:716,0
DA:720,0
DA:845,26
DA:848,26
DA:849,26
DA:845,26786
DA:848,26786
DA:849,26786
DA:845,2981
DA:848,2981
DA:849,2981
DA:845,683
DA:848,683
DA:849,683
DA:845,1406
DA:848,1406
DA:849,1406
LF:96
LH:84
end_of_record
SF:/usr/include/c++/11/bits/stl_map.h
FN:185,_ZNSt3mapIcNSt7__cxx1112basic_stringIcSt11char_traitsIcESaIcEEESt4lessIcESaISt4pairIKcS5_EEEC2Ev
FNDA:1,_ZNSt3mapIcNSt7__cxx1112basic_stringIcSt11char_traitsIcESaIcEEESt4lessIcESaISt4pairIKcS5_EEEC2Ev
FN:302,_ZNSt3mapIcNSt7__cxx1112basic_stringIcSt11char_traitsIcESaIcEEESt4lessIcESaISt4pairIKcS5_EEED2Ev
FNDA:1,_ZNSt3mapIcNSt7__cxx1112basic_stringIcSt11char_traitsIcESaIcEEESt4lessIcESaISt4pairIKcS5_EEED2Ev
FN:356,_ZNSt3mapIcNSt7__cxx1112basic_stringIcSt11char_traitsIcESaIcEEESt4lessIcESaISt4pairIKcS5_EEE5beginEv
FNDA:1,_ZNSt3mapIcNSt7__cxx1112basic_stringIcSt11char_traitsIcESaIcEEESt4lessIcESaISt4pairIKcS5_EEE5beginEv
FN:374,_ZNSt3mapIcNSt7__cxx1112basic_stringIcSt11char_traitsIcESaIcEEESt4lessIcESaISt4pairIKcS5_EEE3endEv
FNDA:13,_ZNSt3mapIcNSt7__cxx1112basic_stringIcSt11char_traitsIcESaIcEEESt4lessIcESaISt4pairIKcS5_EEE3endEv
FN:492,_ZNSt3mapIcNSt7__cxx1112basic_stringIcSt11char_traitsIcESaIcEEESt4lessIcESaISt4pairIKcS5_EEEixERS9_
FNDA:2,_ZNSt3mapIcNSt7__cxx1112basic_stringIcSt11char_traitsIcESaIcEEESt4lessIcESaISt4pairIKcS5_EEEixERS9_
FN:1142,_ZNKSt3mapIcNSt7__cxx1112basic_stringIcSt11char_traitsIcESaIcEEESt4lessIcESaISt4pairIKcS5_EEE8key_compEv
FNDA:1,_ZNKSt3mapIcNSt7__cxx1112basic_stringIcSt11char_traitsIcESaIcEEESt4lessIcESaISt4pairIKcS5_EEE8key_compEv
FN:1169,_ZNSt3mapIcNSt7__cxx1112basic_stringIcSt11char_traitsIcESaIcEEESt4lessIcESaISt4pairIKcS5_EEE4findERS9_
FNDA:8,_ZNSt3mapIcNSt7__cxx1112basic_stringIcSt11char_traitsIcESaIcEEESt4lessIcESaISt4pairIKcS5_EEE4findERS9_
FN:1258,_ZNSt3mapIcNSt7__cxx1112basic_stringIcSt11char_traitsIcESaIcEEESt4lessIcESaISt4pairIKcS5_EEE11lower_boundERS9_
FNDA:2,_ZNSt3mapIcNSt7__cxx1112basic_stringIcSt11char_traitsIcESaIcEEESt4lessIcESaISt4pairIKcS5_EEE11lower_boundERS9_
FNF:8
FNH:8
DA:185,1
DA:302,1
DA:356,1
DA:357,1
DA:374,13
DA:375,13
DA:492,2
DA:497,2
DA:499,2
DA:501,2
DA:502,2
DA:503,2
DA:507,2
DA:1142,1
DA:1143,1
DA:1169,8
DA:1170,8
DA:1258,2
DA:1259,2
LF:19
LH:19
end_of_record
SF:/usr/include/c++/11/ext/alloc_traits.h
FN:97,_ZN9__gnu_cxx14__alloc_traitsISaIiEiE17_S_select_on_copyERKS1_
FNDA:2,_ZN9__gnu_cxx14__alloc_traitsISaIiEiE17_S_select_on_copyERKS1_
FN:97,_ZN9__gnu_cxx14__alloc_traitsISaIcEcE17_S_select_on_copyERKS1_
FNDA:26766,_ZN9__gnu_cxx14__alloc_traitsISaIcEcE17_S_select_on_copyERKS1_
FN:97,_ZN9__gnu_cxx14__alloc_traitsISaISt6vectorIS1_IcSaIcEESaIS3_EEES5_E17_S_select_on_copyERKS6_
FNDA:702,_ZN9__gnu_cxx14__alloc_traitsISaISt6vectorIS1_IcSaIcEESaIS3_EEES5_E17_S_select_on_copyERKS6_
FN:97,_ZN9__gnu_cxx14__alloc_traitsISaISt6vectorIcSaIcEEES3_E17_S_select_on_copyERKS4_
FNDA:2954,_ZN9__gnu_cxx14__alloc_traitsISaISt6vectorIcSaIcEEES3_E17_S_select_on_copyERKS4_
FNF:4
FNH:4
DA:97,2
DA:98,2
DA:97,26766
DA:98,26766
DA:97,702
DA:98,702
DA:97,2954
DA:98,2954
LF:8
LH:8
end_of_record
SF:/home/zhangyan/shudu-main/shudu5.cpp
FN:3,main
FNDA:1,main
FNF:1
FNH:1
DA:3,1
DA:5,1
DA:6,1
DA:8,1
DA:9,1
DA:11,1
DA:13,1
DA:15,1
DA:16,1
DA:18,1
DA:19,1
DA:21,1
DA:22,3
DA:23,2
DA:24,2
DA:26,2
DA:27,0
DA:28,0
DA:29,0
DA:30,0
DA:31,0
DA:32,0
DA:34,0
DA:35,0
DA:36,0
DA:37,0
DA:38,0
DA:39,0
DA:40,0
DA:41,0
DA:42,0
DA:44,2
DA:48,2
DA:49,2
DA:50,0
DA:51,0
DA:54,2
DA:56,2
DA:57,2
DA:58,0
DA:60,2
DA:61,2
DA:62,2
DA:65,2
DA:66,2
DA:68,0
DA:69,0
DA:70,0
DA:71,0
DA:72,0
DA:73,0
DA:78,2
DA:79,0
DA:80,0
DA:82,2
DA:83,2
DA:84,2
DA:86,0
DA:87,0
DA:88,0
DA:91,0
DA:92,0
DA:96,2
DA:97,2
DA:98,2
DA:99,2
DA:101,0
DA:102,0
DA:103,0
DA:106,2
DA:107,2
DA:109,1
DA:110,1
LF:73
LH:39
end_of_record
SF:/usr/include/c++/11/new
FN:174,_ZnwmPv
FNDA:40652,_ZnwmPv
FN:180,_ZdlPvS_
FNDA:0,_ZdlPvS_
FNF:2
FNH:1
DA:174,40652
DA:175,40652
DA:180,0
LF:3
LH:2
end_of_record
SF:/usr/include/c++/11/bits/vector.tcc
FN:109,_ZNSt6vectorIiSaIiEE12emplace_backIJiEEERiDpOT_
FNDA:4,_ZNSt6vectorIiSaIiEE12emplace_backIJiEEERiDpOT_
FN:109,_ZNSt6vectorIS_IcSaIcEESaIS1_EE12emplace_backIJS1_EEERS1_DpOT_
FNDA:0,_ZNSt6vectorIS_IcSaIcEESaIS1_EE12emplace_backIJS1_EEERS1_DpOT_
FN:109,_ZNSt6vectorIS_IS_IcSaIcEESaIS1_EESaIS3_EE12emplace_backIJS3_EEERS3_DpOT_
FNDA:0,_ZNSt6vectorIS_IS_IcSaIcEESaIS1_EESaIS3_EE12emplace_backIJS3_EEERS3_DpOT_
FN:109,_ZNSt6vectorISt4pairIiiESaIS1_EE12emplace_backIJS1_EEERS1_DpOT_
FNDA:12100,_ZNSt6vectorISt4pairIiiESaIS1_EE12emplace_backIJS1_EEERS1_DpOT_
FN:426,_ZNSt6vectorIiSaIiEE17_M_realloc_insertIJiEEEvN9__gnu_cxx17__normal_iteratorIPiS1_EEDpOT_
FNDA:2,_ZNSt6vectorIiSaIiEE17_M_realloc_insertIJiEEEvN9__gnu_cxx17__normal_iteratorIPiS1_EEDpOT_
FN:426,_ZNSt6vectorIS_IcSaIcEESaIS1_EE17_M_realloc_insertIJS1_EEEvN9__gnu_cxx17__normal_iteratorIPS1_S3_EEDpOT_
FNDA:0,_ZNSt6vectorIS_IcSaIcEESaIS1_EE17_M_realloc_insertIJS1_EEEvN9__gnu_cxx17__normal_iteratorIPS1_S3_EEDpOT_
FN:426,_ZNSt6vectorIS_IS_IcSaIcEESaIS1_EESaIS3_EE17_M_realloc_insertIJS3_EEEvN9__gnu_cxx17__normal_iteratorIPS3_S5_EEDpOT_
FNDA:0,_ZNSt6vectorIS_IS_IcSaIcEESaIS1_EESaIS3_EE17_M_realloc_insertIJS3_EEEvN9__gnu_cxx17__normal_iteratorIPS3_S5_EEDpOT_
FN:426,_ZNSt6vectorISt4pairIiiESaIS1_EE17_M_realloc_insertIJS1_EEEvN9__gnu_cxx17__normal_iteratorIPS1_S3_EEDpOT_
FNDA:7,_ZNSt6vectorISt4pairIiiESaIS1_EE17_M_realloc_insertIJS1_EEEvN9__gnu_cxx17__normal_iteratorIPS1_S3_EEDpOT_
FN:426,_ZNSt6vectorIcSaIcEE17_M_realloc_insertIJRKcEEEvN9__gnu_cxx17__normal_iteratorIPcS1_EEDpOT_
FNDA:0,_ZNSt6vectorIcSaIcEE17_M_realloc_insertIJRKcEEEvN9__gnu_cxx17__normal_iteratorIPcS1_EEDpOT_
FN:426,_ZNSt6vectorIiSaIiEE17_M_realloc_insertIJRKiEEEvN9__gnu_cxx17__normal_iteratorIPiS1_EEDpOT_
FNDA:100,_ZNSt6vectorIiSaIiEE17_M_realloc_insertIJRKiEEEvN9__gnu_cxx17__normal_iteratorIPiS1_EEDpOT_
FN:426,_ZNSt6vectorIS_IS_IcSaIcEESaIS1_EESaIS3_EE17_M_realloc_insertIJRKS3_EEEvN9__gnu_cxx17__normal_iteratorIPS3_S5_EEDpOT_
FNDA:24,_ZNSt6vectorIS_IS_IcSaIcEESaIS1_EESaIS3_EE17_M_realloc_insertIJRKS3_EEEvN9__gnu_cxx17__normal_iteratorIPS3_S5_EEDpOT_
FNF:11
FNH:6
DA:109,4
DA:112,4
DA:115,2
DA:117,2
DA:121,2
DA:123,4
DA:109,0
DA:112,0
DA:115,0
DA:117,0
DA:121,0
DA:123,0
DA:109,0
DA:112,0
DA:115,0
DA:117,0
DA:121,0
DA:123,0
DA:109,12100
DA:112,12100
DA:115,12093
DA:117,12093
DA:121,7
DA:123,12100
DA:426,2
DA:436,2
DA:437,2
DA:438,2
DA:439,2
DA:440,2
DA:441,2
DA:449,2
DA:450,2
DA:456,2
DA:461,2
DA:462,2
DA:464,2
DA:466,2
DA:467,2
DA:500,2
DA:501,2
DA:502,2
DA:503,2
DA:504,2
DA:505,2
DA:426,0
DA:436,0
DA:437,0
DA:438,0
DA:439,0
DA:440,0
DA:441,0
DA:449,0
DA:450,0
DA:456,0
DA:461,0
DA:462,0
DA:464,0
DA:466,0
DA:467,0
DA:500,0
DA:501,0
DA:502,0
DA:503,0
DA:504,0
DA:505,0
DA:426,0
DA:436,0
DA:437,0
DA:438,0
DA:439,0
DA:440,0
DA:441,0
DA:449,0
DA:450,0
DA:456,0
DA:461,0
DA:462,0
DA:464,0
DA:466,0
DA:467,0
DA:500,0
DA:501,0
DA:502,0
DA:503,0
DA:504,0
DA:505,0
DA:426,7
DA:436,7
DA:437,7
DA:438,7
DA:439,7
DA:440,7
DA:441,7
DA:449,7
DA:450,7
DA:456,7
DA:461,7
DA:462,7
DA:464,7
DA:466,7
DA:467,7
DA:500,7
DA:501,7
DA:502,7
DA:503,7
DA:504,7
DA:505,7
DA:426,0
DA:436,0
DA:437,0
DA:438,0
DA:439,0
DA:440,0
DA:441,0
DA:449,0
DA:456,0
DA:461,0
DA:462,0
DA:464,0
DA:466,0
DA:467,0
DA:500,0
DA:501,0
DA:502,0
DA:503,0
DA:504,0
DA:505,0
DA:426,100
DA:436,100
DA:437,100
DA:438,100
DA:439,100
DA:440,100
DA:441,100
DA:449,100
DA:450,100
DA:456,100
DA:461,100
DA:462,100
DA:464,100
DA:466,100
DA:467,100
DA:500,100
DA:501,100
DA:502,100
DA:503,100
DA:504,100
DA:505,100
DA:426,24
DA:436,24
DA:437,24
DA:438,24
DA:439,24
DA:440,24
DA:441,24
DA:449,24
DA:450,24
DA:456,24
DA:461,24
DA:462,24
DA:464,24
DA:466,24
DA:467,24
DA:485,0
DA:487,0
DA:488,0
DA:489,0
DA:491,0
DA:492,0
DA:493,0
DA:500,24
DA:501,24
DA:502,24
DA:503,24
DA:504,24
DA:505,24
LF:177
LH:96
end_of_record
SF:/usr/include/c++/11/bits/basic_string.tcc
FN:206,_ZNSt7__cxx1112basic_stringIcSt11char_traitsIcESaIcEE12_M_constructIPcEEvT_S7_St20forward_iterator_tag
FNDA:0,_ZNSt7__cxx1112basic_stringIcSt11char_traitsIcESaIcEE12_M_constructIPcEEvT_S7_St20forward_iterator_tag
FN:206,_ZNSt7__cxx1112basic_stringIcSt11char_traitsIcESaIcEE12_M_constructIPKcEEvT_S8_St20forward_iterator_tag
FNDA:0,_ZNSt7__cxx1112basic_stringIcSt11char_traitsIcESaIcEE12_M_constructIPKcEEvT_S8_St20forward_iterator_tag
FNF:2
FNH:0
DA:206,0
DA:211,0
DA:212,0
DA:215,0
DA:217,0
DA:219,0
DA:220,0
DA:225,0
DA:226,0
DA:228,0
DA:229,0
DA:232,0
DA:233,0
DA:206,0
DA:211,0
DA:212,0
DA:215,0
DA:217,0
DA:219,0
DA:220,0
DA:225,0
DA:226,0
DA:228,0
DA:229,0
DA:232,0
DA:233,0
LF:26
LH:0
end_of_record
SF:/usr/include/c++/11/bits/stl_pair.h
FN:322,_ZNSt4pairIPSt18_Rb_tree_node_baseS1_EC2IRS1_Lb1EEEOT_RKS1_
FNDA:0,_ZNSt4pairIPSt18_Rb_tree_node_baseS1_EC2IRS1_Lb1EEEOT_RKS1_
FN:336,_ZNSt4pairIPSt18_Rb_tree_node_baseS1_EC2IRS1_Lb1EEERKS1_OT_
FNDA:0,_ZNSt4pairIPSt18_Rb_tree_node_baseS1_EC2IRS1_Lb1EEERKS1_OT_
FN:352,_ZNSt4pairIPSt18_Rb_tree_node_baseS1_EC2IRPSt13_Rb_tree_nodeIS_IKcNSt7__cxx1112basic_stringIcSt11char_traitsIcESaIcEEEEERS1_Lb1EEEOT_OT0_
FNDA:1,_ZNSt4pairIPSt18_Rb_tree_node_baseS1_EC2IRPSt13_Rb_tree_nodeIS_IKcNSt7__cxx1112basic_stringIcSt11char_traitsIcESaIcEEEEERS1_Lb1EEEOT_OT0_
FN:352,_ZNSt4pairIPSt18_Rb_tree_node_baseS1_EC2IRS1_S4_Lb1EEEOT_OT0_
FNDA:1,_ZNSt4pairIPSt18_Rb_tree_node_baseS1_EC2IRS1_S4_Lb1EEEOT_OT0_
FN:352,_ZNSt4pairIiiEC2IRiS2_Lb1EEEOT_OT0_
FNDA:12100,_ZNSt4pairIiiEC2IRiS2_Lb1EEEOT_OT0_
FNF:5
FNH:3
DA:322,0
DA:323,0
DA:336,0
DA:337,0
DA:352,1
DA:353,1
DA:352,1
DA:353,1
DA:352,12100
DA:353,12100
LF:10
LH:6
end_of_record
SF:/usr/include/c++/11/bits/allocator.h
FN:156,_ZNSaISt13_Rb_tree_nodeISt4pairIKcNSt7__cxx1112basic_stringIcSt11char_traitsIcESaIcEEEEEEC2Ev
FNDA:1,_ZNSaISt13_Rb_tree_nodeISt4pairIKcNSt7__cxx1112basic_stringIcSt11char_traitsIcESaIcEEEEEEC2Ev
FN:156,_ZNSaIiEC2Ev
FNDA:22,_ZNSaIiEC2Ev
FN:156,_ZNSaISt4pairIiiEEC2Ev
FNDA:1,_ZNSaISt4pairIiiEEC2Ev
FN:156,_ZNSaISt6vectorIS_IcSaIcEESaIS1_EEEC2Ev
FNDA:22,_ZNSaISt6vectorIS_IcSaIcEESaIS1_EEEC2Ev
FN:156,_ZNSaISt6vectorIcSaIcEEEC2Ev
FNDA:20,_ZNSaISt6vectorIcSaIcEEEC2Ev
FN:159,_ZNSaISt6vectorIS_IcSaIcEESaIS1_EEEC2ERKS4_
FNDA:1404,_ZNSaISt6vectorIS_IcSaIcEESaIS1_EEEC2ERKS4_
FN:159,_ZNSaIiEC2ERKS_
FNDA:4,_ZNSaIiEC2ERKS_
FN:159,_ZNSaISt6vectorIcSaIcEEEC2ERKS2_
FNDA:5955,_ZNSaISt6vectorIcSaIcEEEC2ERKS2_
FN:174,_ZNSaISt13_Rb_tree_nodeISt4pairIKcNSt7__cxx1112basic_stringIcSt11char_traitsIcESaIcEEEEEED2Ev
FNDA:1,_ZNSaISt13_Rb_tree_nodeISt4pairIKcNSt7__cxx1112basic_stringIcSt11char_traitsIcESaIcEEEEEED2Ev
FN:174,_ZNSaIiED2Ev
FNDA:26,_ZNSaIiED2Ev
FN:174,_ZNSaISt6vectorIcSaIcEEED2Ev
FNDA:5975,_ZNSaISt6vectorIcSaIcEEED2Ev
FN:174,_ZNSaISt4pairIiiEED2Ev
FNDA:1,_ZNSaISt4pairIiiEED2Ev
FN:174,_ZNSaISt6vectorIS_IcSaIcEESaIS1_EEED2Ev
FNDA:1426,_ZNSaISt6vectorIS_IcSaIcEESaIS1_EEED2Ev
FNF:13
FNH:13
DA:156,1
DA:156,22
DA:156,1
DA:156,22
DA:156,20
DA:159,1404
DA:160,1404
DA:159,4
DA:160,4
DA:159,5955
DA:160,5955
DA:174,1
DA:174,26
DA:174,5975
DA:174,1
DA:174,1426
LF:16
LH:16
end_of_record
SF:/usr/include/c++/11/bits/stl_tree.h
FN:146,_ZNSt20_Rb_tree_key_compareISt4lessIcEEC2Ev
FNDA:1,_ZNSt20_Rb_tree_key_compareISt4lessIcEEC2Ev
FN:173,_ZNSt15_Rb_tree_headerC2Ev
FNDA:1,_ZNSt15_Rb_tree_headerC2Ev
FN:206,_ZNSt15_Rb_tree_header8_M_resetEv
FNDA:1,_ZNSt15_Rb_tree_header8_M_resetEv
FN:234,_ZNSt13_Rb_tree_nodeISt4pairIKcNSt7__cxx1112basic_stringIcSt11char_traitsIcESaIcEEEEE9_M_valptrEv
FNDA:15,_ZNSt13_Rb_tree_nodeISt4pairIKcNSt7__cxx1112basic_stringIcSt11char_traitsIcESaIcEEEEE9_M_valptrEv
FN:238,_ZNKSt13_Rb_tree_nodeISt4pairIKcNSt7__cxx1112basic_stringIcSt11char_traitsIcESaIcEEEEE9_M_valptrEv
FNDA:20,_ZNKSt13_Rb_tree_nodeISt4pairIKcNSt7__cxx1112basic_stringIcSt11char_traitsIcESaIcEEEEE9_M_valptrEv
FN:269,_ZNSt17_Rb_tree_iteratorISt4pairIKcNSt7__cxx1112basic_stringIcSt11char_traitsIcESaIcEEEEEC2Ev
FNDA:2,_ZNSt17_Rb_tree_iteratorISt4pairIKcNSt7__cxx1112basic_stringIcSt11char_traitsIcESaIcEEEEEC2Ev
FN:273,_ZNSt17_Rb_tree_iteratorISt4pairIKcNSt7__cxx1112basic_stringIcSt11char_traitsIcESaIcEEEEEC2EPSt18_Rb_tree_node_base
FNDA:42,_ZNSt17_Rb_tree_iteratorISt4pairIKcNSt7__cxx1112basic_stringIcSt11char_traitsIcESaIcEEEEEC2EPSt18_Rb_tree_node_base
FN:277,_ZNKSt17_Rb_tree_iteratorISt4pairIKcNSt7__cxx1112basic_stringIcSt11char_traitsIcESaIcEEEEEdeEv
FNDA:3,_ZNKSt17_Rb_tree_iteratorISt4pairIKcNSt7__cxx1112basic_stringIcSt11char_traitsIcESaIcEEEEEdeEv
FN:281,_ZNKSt17_Rb_tree_iteratorISt4pairIKcNSt7__cxx1112basic_stringIcSt11char_traitsIcESaIcEEEEEptEv
FNDA:8,_ZNKSt17_Rb_tree_iteratorISt4pairIKcNSt7__cxx1112basic_stringIcSt11char_traitsIcESaIcEEEEEptEv
FN:285,_ZNSt17_Rb_tree_iteratorISt4pairIKcNSt7__cxx1112basic_stringIcSt11char_traitsIcESaIcEEEEEppEv
FNDA:2,_ZNSt17_Rb_tree_iteratorISt4pairIKcNSt7__cxx1112basic_stringIcSt11char_traitsIcESaIcEEEEEppEv
FN:300,_ZNSt17_Rb_tree_iteratorISt4pairIKcNSt7__cxx1112basic_stringIcSt11char_traitsIcESaIcEEEEEmmEv
FNDA:0,_ZNSt17_Rb_tree_iteratorISt4pairIKcNSt7__cxx1112basic_stringIcSt11char_traitsIcESaIcEEEEEmmEv
FN:315,_ZSteqRKSt17_Rb_tree_iteratorISt4pairIKcNSt7__cxx1112basic_stringIcSt11char_traitsIcESaIcEEEEESB_
FNDA:13,_ZSteqRKSt17_Rb_tree_iteratorISt4pairIKcNSt7__cxx1112basic_stringIcSt11char_traitsIcESaIcEEEEESB_
FN:320,_ZStneRKSt17_Rb_tree_iteratorISt4pairIKcNSt7__cxx1112basic_stringIcSt11char_traitsIcESaIcEEEEESB_
FNDA:9,_ZStneRKSt17_Rb_tree_iteratorISt4pairIKcNSt7__cxx1112basic_stringIcSt11char_traitsIcESaIcEEEEESB_
FN:350,_ZNSt23_Rb_tree_const_iteratorISt4pairIKcNSt7__cxx1112basic_stringIcSt11char_traitsIcESaIcEEEEEC2ERKSt17_Rb_tree_iteratorIS8_E
FNDA:2,_ZNSt23_Rb_tree_const_iteratorISt4pairIKcNSt7__cxx1112basic_stringIcSt11char_traitsIcESaIcEEEEEC2ERKSt17_Rb_tree_iteratorIS8_E
FN:354,_ZNKSt23_Rb_tree_const_iteratorISt4pairIKcNSt7__cxx1112basic_stringIcSt11char_traitsIcESaIcEEEEE13_M_const_castEv
FNDA:2,_ZNKSt23_Rb_tree_const_iteratorISt4pairIKcNSt7__cxx1112basic_stringIcSt11char_traitsIcESaIcEEEEE13_M_const_castEv
FN:547,_ZNSt8_Rb_treeIcSt4pairIKcNSt7__cxx1112basic_stringIcSt11char_traitsIcESaIcEEEESt10_Select1stIS8_ESt4lessIcESaIS8_EE21_M_get_Node_allocatorEv
FNDA:8,_ZNSt8_Rb_treeIcSt4pairIKcNSt7__cxx1112basic_stringIcSt11char_traitsIcESaIcEEEESt10_Select1stIS8_ESt4lessIcESaIS8_EE21_M_get_Node_allocatorEv
FN:560,_ZNSt8_Rb_treeIcSt4pairIKcNSt7__cxx1112basic_stringIcSt11char_traitsIcESaIcEEEESt10_Select1stIS8_ESt4lessIcESaIS8_EE11_M_get_nodeEv
FNDA:2,_ZNSt8_Rb_treeIcSt4pairIKcNSt7__cxx1112basic_stringIcSt11char_traitsIcESaIcEEEESt10_Select1stIS8_ESt4lessIcESaIS8_EE11_M_get_nodeEv
FN:564,_ZNSt8_Rb_treeIcSt4pairIKcNSt7__cxx1112basic_stringIcSt11char_traitsIcESaIcEEEESt10_Select1stIS8_ESt4lessIcESaIS8_EE11_M_put_nodeEPSt13_Rb_tree_nodeIS8_E
FNDA:2,_ZNSt8_Rb_treeIcSt4pairIKcNSt7__cxx1112basic_stringIcSt11char_traitsIcESaIcEEEESt10_Select1stIS8_ESt4lessIcESaIS8_EE11_M_put_nodeEPSt13_Rb_tree_nodeIS8_E
FN:590,_ZNSt8_Rb_treeIcSt4pairIKcNSt7__cxx1112basic_stringIcSt11char_traitsIcESaIcEEEESt10_Select1stIS8_ESt4lessIcESaIS8_EE17_M_construct_nodeIJRKSt21piecewise_construct_tSt5tupleIJRS1_EESJ_IJEEEEEvPSt13_Rb_tree_nodeIS8_EDpOT_
FNDA:2,_ZNSt8_Rb_treeIcSt4pairIKcNSt7__cxx1112basic_stringIcSt11char_traitsIcESaIcEEEESt10_Select1stIS8_ESt4lessIcESaIS8_EE17_M_construct_nodeIJRKSt21piecewise_construct_tSt5tupleIJRS1_EESJ_IJEEEEEvPSt13_Rb_tree_nodeIS8_EDpOT_
FN:609,_ZNSt8_Rb_treeIcSt4pairIKcNSt7__cxx1112basic_stringIcSt11char_traitsIcESaIcEEEESt10_Select1stIS8_ESt4lessIcESaIS8_EE14_M_create_nodeIJRKSt21piecewise_construct_tSt5tupleIJRS1_EESJ_IJEEEEEPSt13_Rb_tree_nodeIS8_EDpOT_
FNDA:2,_ZNSt8_Rb_treeIcSt4pairIKcNSt7__cxx1112basic_stringIcSt11char_traitsIcESaIcEEEESt10_Select1stIS8_ESt4lessIcESaIS8_EE14_M_create_nodeIJRKSt21piecewise_construct_tSt5tupleIJRS1_EESJ_IJEEEEEPSt13_Rb_tree_nodeIS8_EDpOT_
FN:618,_ZNSt8_Rb_treeIcSt4pairIKcNSt7__cxx1112basic_stringIcSt11char_traitsIcESaIcEEEESt10_Select1stIS8_ESt4lessIcESaIS8_EE15_M_destroy_nodeEPSt13_Rb_tree_nodeIS8_E
FNDA:2,_ZNSt8_Rb_treeIcSt4pairIKcNSt7__cxx1112basic_stringIcSt11char_traitsIcESaIcEEEESt10_Select1stIS8_ESt4lessIcESaIS8_EE15_M_destroy_nodeEPSt13_Rb_tree_nodeIS8_E
FN:629,_ZNSt8_Rb_treeIcSt4pairIKcNSt7__cxx1112basic_stringIcSt11char_traitsIcESaIcEEEESt10_Select1stIS8_ESt4lessIcESaIS8_EE12_M_drop_nodeEPSt13_Rb_tree_nodeIS8_E
FNDA:2,_ZNSt8_Rb_treeIcSt4pairIKcNSt7__cxx1112basic_stringIcSt11char_traitsIcESaIcEEEESt10_Select1stIS8_ESt4lessIcESaIS8_EE12_M_drop_nodeEPSt13_Rb_tree_nodeIS8_E
FN:667,_ZNSt8_Rb_treeIcSt4pairIKcNSt7__cxx1112basic_stringIcSt11char_traitsIcESaIcEEEESt10_Select1stIS8_ESt4lessIcESaIS8_EE13_Rb_tree_implISC_Lb1EEC2Ev
FNDA:1,_ZNSt8_Rb_treeIcSt4pairIKcNSt7__cxx1112basic_stringIcSt11char_traitsIcESaIcEEEESt10_Select1stIS8_ESt4lessIcESaIS8_EE13_Rb_tree_implISC_Lb1EEC2Ev
FN:718,_ZNSt8_Rb_treeIcSt4pairIKcNSt7__cxx1112basic_stringIcSt11char_traitsIcESaIcEEEESt10_Select1stIS8_ESt4lessIcESaIS8_EE11_M_leftmostEv
FNDA:3,_ZNSt8_Rb_treeIcSt4pairIKcNSt7__cxx1112basic_stringIcSt11char_traitsIcESaIcEEEESt10_Select1stIS8_ESt4lessIcESaIS8_EE11_M_leftmostEv
FN:726,_ZNSt8_Rb_treeIcSt4pairIKcNSt7__cxx1112basic_stringIcSt11char_traitsIcESaIcEEEESt10_Select1stIS8_ESt4lessIcESaIS8_EE12_M_rightmostEv
FNDA:0,_ZNSt8_Rb_treeIcSt4pairIKcNSt7__cxx1112basic_stringIcSt11char_traitsIcESaIcEEEESt10_Select1stIS8_ESt4lessIcESaIS8_EE12_M_rightmostEv
FN:734,_ZNKSt8_Rb_treeIcSt4pairIKcNSt7__cxx1112basic_stringIcSt11char_traitsIcESaIcEEEESt10_Select1stIS8_ESt4lessIcESaIS8_EE9_M_mbeginEv
FNDA:12,_ZNKSt8_Rb_treeIcSt4pairIKcNSt7__cxx1112basic_stringIcSt11char_traitsIcESaIcEEEESt10_Select1stIS8_ESt4lessIcESaIS8_EE9_M_mbeginEv
FN:738,_ZNSt8_Rb_treeIcSt4pairIKcNSt7__cxx1112basic_stringIcSt11char_traitsIcESaIcEEEESt10_Select1stIS8_ESt4lessIcESaIS8_EE8_M_beginEv
FNDA:12,_ZNSt8_Rb_treeIcSt4pairIKcNSt7__cxx1112basic_stringIcSt11char_traitsIcESaIcEEEESt10_Select1stIS8_ESt4lessIcESaIS8_EE8_M_beginEv
FN:749,_ZNSt8_Rb_treeIcSt4pairIKcNSt7__cxx1112basic_stringIcSt11char_traitsIcESaIcEEEESt10_Select1stIS8_ESt4lessIcESaIS8_EE6_M_endEv
FNDA:14,_ZNSt8_Rb_treeIcSt4pairIKcNSt7__cxx1112basic_stringIcSt11char_traitsIcESaIcEEEESt10_Select1stIS8_ESt4lessIcESaIS8_EE6_M_endEv
FN:757,_ZNSt8_Rb_treeIcSt4pairIKcNSt7__cxx1112basic_stringIcSt11char_traitsIcESaIcEEEESt10_Select1stIS8_ESt4lessIcESaIS8_EE6_S_keyEPKSt13_Rb_tree_nodeIS8_E
FNDA:20,_ZNSt8_Rb_treeIcSt4pairIKcNSt7__cxx1112basic_stringIcSt11char_traitsIcESaIcEEEESt10_Select1stIS8_ESt4lessIcESaIS8_EE6_S_keyEPKSt13_Rb_tree_nodeIS8_E
FN:779,_ZNSt8_Rb_treeIcSt4pairIKcNSt7__cxx1112basic_stringIcSt11char_traitsIcESaIcEEEESt10_Select1stIS8_ESt4lessIcESaIS8_EE7_S_leftEPSt18_Rb_tree_node_base
FNDA:9,_ZNSt8_Rb_treeIcSt4pairIKcNSt7__cxx1112basic_stringIcSt11char_traitsIcESaIcEEEESt10_Select1stIS8_ESt4lessIcESaIS8_EE7_S_leftEPSt18_Rb_tree_node_base
FN:787,_ZNSt8_Rb_treeIcSt4pairIKcNSt7__cxx1112basic_stringIcSt11char_traitsIcESaIcEEEESt10_Select1stIS8_ESt4lessIcESaIS8_EE8_S_rightEPSt18_Rb_tree_node_base
FNDA:8,_ZNSt8_Rb_treeIcSt4pairIKcNSt7__cxx1112basic_stringIcSt11char_traitsIcESaIcEEEESt10_Select1stIS8_ESt4lessIcESaIS8_EE8_S_rightEPSt18_Rb_tree_node_base
FN:795,_ZNSt8_Rb_treeIcSt4pairIKcNSt7__cxx1112basic_stringIcSt11char_traitsIcESaIcEEEESt10_Select1stIS8_ESt4lessIcESaIS8_EE6_S_keyEPKSt18_Rb_tree_node_base
FNDA:5,_ZNSt8_Rb_treeIcSt4pairIKcNSt7__cxx1112basic_stringIcSt11char_traitsIcESaIcEEEESt10_Select1stIS8_ESt4lessIcESaIS8_EE6_S_keyEPKSt18_Rb_tree_node_base
FN:928,_ZNSt8_Rb_treeIcSt4pairIKcNSt7__cxx1112basic_stringIcSt11char_traitsIcESaIcEEEESt10_Select1stIS8_ESt4lessIcESaIS8_EEC2Ev
FNDA:1,_ZNSt8_Rb_treeIcSt4pairIKcNSt7__cxx1112basic_stringIcSt11char_traitsIcESaIcEEEESt10_Select1stIS8_ESt4lessIcESaIS8_EEC2Ev
FN:983,_ZNSt8_Rb_treeIcSt4pairIKcNSt7__cxx1112basic_stringIcSt11char_traitsIcESaIcEEEESt10_Select1stIS8_ESt4lessIcESaIS8_EED2Ev
FNDA:1,_ZNSt8_Rb_treeIcSt4pairIKcNSt7__cxx1112basic_stringIcSt11char_traitsIcESaIcEEEESt10_Select1stIS8_ESt4lessIcESaIS8_EED2Ev
FN:991,_ZNKSt8_Rb_treeIcSt4pairIKcNSt7__cxx1112basic_stringIcSt11char_traitsIcESaIcEEEESt10_Select1stIS8_ESt4lessIcESaIS8_EE8key_compEv
FNDA:1,_ZNKSt8_Rb_treeIcSt4pairIKcNSt7__cxx1112basic_stringIcSt11char_traitsIcESaIcEEEESt10_Select1stIS8_ESt4lessIcESaIS8_EE8key_compEv
FN:995,_ZNSt8_Rb_treeIcSt4pairIKcNSt7__cxx1112basic_stringIcSt11char_traitsIcESaIcEEEESt10_Select1stIS8_ESt4lessIcESaIS8_EE5beginEv
FNDA:2,_ZNSt8_Rb_treeIcSt4pairIKcNSt7__cxx1112basic_stringIcSt11char_traitsIcESaIcEEEESt10_Select1stIS8_ESt4lessIcESaIS8_EE5beginEv
FN:1003,_ZNSt8_Rb_treeIcSt4pairIKcNSt7__cxx1112basic_stringIcSt11char_traitsIcESaIcEEEESt10_Select1stIS8_ESt4lessIcESaIS8_EE3endEv
FNDA:25,_ZNSt8_Rb_treeIcSt4pairIKcNSt7__cxx1112basic_stringIcSt11char_traitsIcESaIcEEEESt10_Select1stIS8_ESt4lessIcESaIS8_EE3endEv
FN:1031,_ZNKSt8_Rb_treeIcSt4pairIKcNSt7__cxx1112basic_stringIcSt11char_traitsIcESaIcEEEESt10_Select1stIS8_ESt4lessIcESaIS8_EE4sizeEv
FNDA:1,_ZNKSt8_Rb_treeIcSt4pairIKcNSt7__cxx1112basic_stringIcSt11char_traitsIcESaIcEEEESt10_Select1stIS8_ESt4lessIcESaIS8_EE4sizeEv
FN:1269,_ZNSt8_Rb_treeIcSt4pairIKcNSt7__cxx1112basic_stringIcSt11char_traitsIcESaIcEEEESt10_Select1stIS8_ESt4lessIcESaIS8_EE11lower_boundERS1_
FNDA:2,_ZNSt8_Rb_treeIcSt4pairIKcNSt7__cxx1112basic_stringIcSt11char_traitsIcESaIcEEEESt10_Select1stIS8_ESt4lessIcESaIS8_EE11lower_boundERS1_
FN:1883,_ZNSt8_Rb_treeIcSt4pairIKcNSt7__cxx1112basic_stringIcSt11char_traitsIcESaIcEEEESt10_Select1stIS8_ESt4lessIcESaIS8_EE8_M_eraseEPSt13_Rb_tree_nodeIS8_E
FNDA:3,_ZNSt8_Rb_treeIcSt4pairIKcNSt7__cxx1112basic_stringIcSt11char_traitsIcESaIcEEEESt10_Select1stIS8_ESt4lessIcESaIS8_EE8_M_eraseEPSt13_Rb_tree_nodeIS8_E
FN:1900,_ZNSt8_Rb_treeIcSt4pairIKcNSt7__cxx1112basic_stringIcSt11char_traitsIcESaIcEEEESt10_Select1stIS8_ESt4lessIcESaIS8_EE14_M_lower_boundEPSt13_Rb_tree_nodeIS8_EPSt18_Rb_tree_node_baseRS1_
FNDA:10,_ZNSt8_Rb_treeIcSt4pairIKcNSt7__cxx1112basic_stringIcSt11char_traitsIcESaIcEEEESt10_Select1stIS8_ESt4lessIcESaIS8_EE14_M_lower_boundEPSt13_Rb_tree_nodeIS8_EPSt18_Rb_tree_node_baseRS1_
FN:2061,_ZNSt8_Rb_treeIcSt4pairIKcNSt7__cxx1112basic_stringIcSt11char_traitsIcESaIcEEEESt10_Select1stIS8_ESt4lessIcESaIS8_EE24_M_get_insert_unique_posERS1_
FNDA:1,_ZNSt8_Rb_treeIcSt4pairIKcNSt7__cxx1112basic_stringIcSt11char_traitsIcESaIcEEEESt10_Select1stIS8_ESt4lessIcESaIS8_EE24_M_get_insert_unique_posERS1_
FN:2163,_ZNSt8_Rb_treeIcSt4pairIKcNSt7__cxx1112basic_stringIcSt11char_traitsIcESaIcEEEESt10_Select1stIS8_ESt4lessIcESaIS8_EE29_M_get_insert_hint_unique_posESt23_Rb_tree_const_iteratorIS8_ERS1_
FNDA:2,_ZNSt8_Rb_treeIcSt4pairIKcNSt7__cxx1112basic_stringIcSt11char_traitsIcESaIcEEEESt10_Select1stIS8_ESt4lessIcESaIS8_EE29_M_get_insert_hint_unique_posESt23_Rb_tree_const_iteratorIS8_ERS1_
FN:2330,_ZNSt8_Rb_treeIcSt4pairIKcNSt7__cxx1112basic_stringIcSt11char_traitsIcESaIcEEEESt10_Select1stIS8_ESt4lessIcESaIS8_EE14_M_insert_nodeEPSt18_Rb_tree_node_baseSG_PSt13_Rb_tree_nodeIS8_E
FNDA:2,_ZNSt8_Rb_treeIcSt4pairIKcNSt7__cxx1112basic_stringIcSt11char_traitsIcESaIcEEEESt10_Select1stIS8_ESt4lessIcESaIS8_EE14_M_insert_nodeEPSt18_Rb_tree_node_baseSG_PSt13_Rb_tree_nodeIS8_E
FN:2428,_ZNSt8_Rb_treeIcSt4pairIKcNSt7__cxx1112basic_stringIcSt11char_traitsIcESaIcEEEESt10_Select1stIS8_ESt4lessIcESaIS8_EE22_M_emplace_hint_uniqueIJRKSt21piecewise_construct_tSt5tupleIJRS1_EESJ_IJEEEEESt17_Rb_tree_iteratorIS8_ESt23_Rb_tree_const_iteratorIS8_EDpOT_
FNDA:2,_ZNSt8_Rb_treeIcSt4pairIKcNSt7__cxx1112basic_stringIcSt11char_traitsIcESaIcEEEESt10_Select1stIS8_ESt4lessIcESaIS8_EE22_M_emplace_hint_uniqueIJRKSt21piecewise_construct_tSt5tupleIJRS1_EESJ_IJEEEEESt17_Rb_tree_iteratorIS8_ESt23_Rb_tree_const_iteratorIS8_EDpOT_
FN:2520,_ZNSt8_Rb_treeIcSt4pairIKcNSt7__cxx1112basic_stringIcSt11char_traitsIcESaIcEEEESt10_Select1stIS8_ESt4lessIcESaIS8_EE4findERS1_
FNDA:8,_ZNSt8_Rb_treeIcSt4pairIKcNSt7__cxx1112basic_stringIcSt11char_traitsIcESaIcEEEESt10_Select1stIS8_ESt4lessIcESaIS8_EE4findERS1_
FNF:46
FNH:44
DA:146,1
DA:150,1
DA:173,1
DA:174,1
DA:175,1
DA:176,1
DA:177,1
DA:206,1
DA:208,1
DA:209,1
DA:210,1
DA:211,1
DA:212,1
DA:234,15
DA:235,15
DA:238,20
DA:239,20
DA:269,2
DA:270,2
DA:273,42
DA:274,42
DA:277,3
DA:278,3
DA:281,8
DA:282,8
DA:285,2
DA:287,2
DA:288,2
DA:300,0
DA:302,0
DA:303,0
DA:315,13
DA:316,13
DA:320,9
DA:321,9
DA:350,2
DA:351,2
DA:354,2
DA:355,2
DA:547,8
DA:548,8
DA:560,2
DA:561,2
DA:564,2
DA:565,2
DA:590,2
DA:594,2
DA:595,2
DA:599,0
DA:601,0
DA:602,0
DA:603,0
DA:605,2
DA:609,2
DA:611,2
DA:612,2
DA:613,2
DA:618,2
DA:623,2
DA:624,2
DA:626,2
DA:629,2
DA:631,2
DA:632,2
DA:633,2
DA:667,1
DA:671,1
DA:672,1
DA:718,3
DA:719,3
DA:726,0
DA:727,0
DA:734,12
DA:735,12
DA:738,12
DA:739,12
DA:749,14
DA:750,14
DA:757,20
DA:775,20
DA:779,9
DA:780,9
DA:787,8
DA:788,8
DA:795,5
DA:796,5
DA:928,1
DA:983,1
DA:984,1
DA:991,1
DA:992,1
DA:995,2
DA:996,2
DA:1003,25
DA:1004,25
DA:1031,1
DA:1032,1
DA:1269,2
DA:1270,2
DA:1883,3
DA:1887,5
DA:1889,2
DA:1890,2
DA:1891,2
DA:1892,2
DA:1894,3
DA:1900,10
DA:1904,23
DA:1905,13
DA:1906,7
DA:1908,6
DA:1909,10
DA:2061,1
DA:2065,1
DA:2066,1
DA:2067,1
DA:2068,1
DA:2070,0
DA:2071,0
DA:2072,0
DA:2074,1
DA:2075,1
DA:2077,1
DA:2078,1
DA:2080,0
DA:2082,0
DA:2083,0
DA:2084,0
DA:2163,2
DA:2167,2
DA:2171,2
DA:2173,1
DA:2174,1
DA:2175,0
DA:2177,1
DA:2179,1
DA:2182,1
DA:2183,1
DA:2184,1
DA:2185,0
DA:2187,0
DA:2188,0
DA:2190,0
DA:2193,0
DA:2195,0
DA:2198,0
DA:2199,0
DA:2200,0
DA:2201,0
DA:2203,0
DA:2204,0
DA:2206,0
DA:2209,0
DA:2213,0
DA:2330,2
DA:2333,1
DA:2334,3
DA:2337,2
DA:2338,2
DA:2339,2
DA:2340,2
DA:2428,2
DA:2431,2
DA:2435,2
DA:2437,2
DA:2438,2
DA:2440,0
DA:2441,0
DA:2443,0
DA:2445,0
DA:2446,0
DA:2520,8
DA:2523,8
DA:2524,16
DA:2525,4
DA:2526,20
LF:176
LH:139
end_of_record
SF:/usr/include/c++/11/bits/basic_string.h
FN:251,_ZNSt7__cxx1112basic_stringIcSt11char_traitsIcESaIcEE16_M_construct_auxIPcEEvT_S7_St12__false_type
FNDA:0,_ZNSt7__cxx1112basic_stringIcSt11char_traitsIcESaIcEE16_M_construct_auxIPcEEvT_S7_St12__false_type
FN:271,_ZNSt7__cxx1112basic_stringIcSt11char_traitsIcESaIcEE12_M_constructIPcEEvT_S7_
FNDA:0,_ZNSt7__cxx1112basic_stringIcSt11char_traitsIcESaIcEE12_M_constructIPcEEvT_S7_
FN:533,_ZNSt7__cxx1112basic_stringIcSt11char_traitsIcESaIcEEC2IS3_EEPKcRKS3_
FNDA:0,_ZNSt7__cxx1112basic_stringIcSt11char_traitsIcESaIcEEC2IS3_EEPKcRKS3_
FN:6619,_ZNSt7__cxx114stoiERKNS_12basic_stringIcSt11char_traitsIcESaIcEEEPmi
FNDA:2,_ZNSt7__cxx114stoiERKNS_12basic_stringIcSt11char_traitsIcESaIcEEEPmi
FNF:4
FNH:1
DA:251,0
DA:255,0
DA:256,0
DA:271,0
DA:274,0
DA:275,0
DA:533,0
DA:534,0
DA:536,0
DA:539,0
DA:540,0
DA:6619,2
DA:6620,2
DA:6621,2
LF:14
LH:3
end_of_record
SF:/usr/include/c++/11/bits/stl_construct.h
FN:109,_ZSt10_ConstructISt6vectorIS0_IcSaIcEESaIS2_EEJRKS4_EEvPT_DpOT0_
FNDA:764,_ZSt10_ConstructISt6vectorIS0_IcSaIcEESaIS2_EEJRKS4_EEvPT_DpOT0_
FN:109,_ZSt10_ConstructISt6vectorIcSaIcEEJRKS2_EEvPT_DpOT0_
FNDA:26766,_ZSt10_ConstructISt6vectorIcSaIcEEJRKS2_EEvPT_DpOT0_
FN:146,_ZSt8_DestroyISt6vectorIcSaIcEEEvPT_
FNDA:26766,_ZSt8_DestroyISt6vectorIcSaIcEEEvPT_
FN:146,_ZSt8_DestroyISt6vectorIS0_IcSaIcEESaIS2_EEEvPT_
FNDA:1528,_ZSt8_DestroyISt6vectorIS0_IcSaIcEESaIS2_EEEvPT_
FN:160,_ZNSt12_Destroy_auxILb0EE9__destroyIPSt6vectorIcSaIcEEEEvT_S6_
FNDA:2981,_ZNSt12_Destroy_auxILb0EE9__destroyIPSt6vectorIcSaIcEEEEvT_S6_
FN:160,_ZNSt12_Destroy_auxILb0EE9__destroyIPSt6vectorIS2_IcSaIcEESaIS4_EEEEvT_S8_
FNDA:1406,_ZNSt12_Destroy_auxILb0EE9__destroyIPSt6vectorIS2_IcSaIcEESaIS4_EEEEvT_S8_
FN:172,_ZNSt12_Destroy_auxILb1EE9__destroyIPiEEvT_S3_
FNDA:26,_ZNSt12_Destroy_auxILb1EE9__destroyIPiEEvT_S3_
FN:172,_ZNSt12_Destroy_auxILb1EE9__destroyIPcEEvT_S3_
FNDA:26786,_ZNSt12_Destroy_auxILb1EE9__destroyIPcEEvT_S3_
FN:172,_ZNSt12_Destroy_auxILb1EE9__destroyIPSt4pairIiiEEEvT_S5_
FNDA:683,_ZNSt12_Destroy_auxILb1EE9__destroyIPSt4pairIiiEEEvT_S5_
FN:182,_ZSt8_DestroyIPiEvT_S1_
FNDA:26,_ZSt8_DestroyIPiEvT_S1_
FN:182,_ZSt8_DestroyIPcEvT_S1_
FNDA:26786,_ZSt8_DestroyIPcEvT_S1_
FN:182,_ZSt8_DestroyIPSt6vectorIcSaIcEEEvT_S4_
FNDA:2981,_ZSt8_DestroyIPSt6vectorIcSaIcEEEvT_S4_
FN:182,_ZSt8_DestroyIPSt4pairIiiEEvT_S3_
FNDA:683,_ZSt8_DestroyIPSt4pairIiiEEvT_S3_
FN:182,_ZSt8_DestroyIPSt6vectorIS0_IcSaIcEESaIS2_EEEvT_S6_
FNDA:1406,_ZSt8_DestroyIPSt6vectorIS0_IcSaIcEESaIS2_EEEvT_S6_
FNF:14
FNH:14
DA:109,764
DA:119,764
DA:120,764
DA:109,26766
DA:119,26766
DA:120,26766
DA:146,26766
DA:151,26766
DA:153,26766
DA:146,1528
DA:151,1528
DA:153,1528
DA:160,2981
DA:162,29747
DA:163,26766
DA:164,2981
DA:160,1406
DA:162,2934
DA:163,1528
DA:164,1406
DA:172,26
DA:172,26786
DA:172,683
DA:182,26
DA:196,26
DA:197,26
DA:182,26786
DA:196,26786
DA:197,26786
DA:182,2981
DA:196,2981
DA:197,2981
DA:182,683
DA:196,683
DA:197,683
DA:182,1406
DA:196,1406
DA:197,1406
LF:38
LH:38
end_of_record
SF:/usr/include/c++/11/bits/stl_iterator.h
FN:1010,_ZN9__gnu_cxx17__normal_iteratorIPKSt6vectorIcSaIcEES1_IS3_SaIS3_EEEC2ERKS5_
FNDA:5908,_ZN9__gnu_cxx17__normal_iteratorIPKSt6vectorIcSaIcEES1_IS3_SaIS3_EEEC2ERKS5_
FN:1010,_ZN9__gnu_cxx17__normal_iteratorIPSt6vectorIS1_IcSaIcEESaIS3_EES1_IS5_SaIS5_EEEC2ERKS6_
FNDA:48,_ZN9__gnu_cxx17__normal_iteratorIPSt6vectorIS1_IcSaIcEESaIS3_EES1_IS5_SaIS5_EEEC2ERKS6_
FN:1010,_ZN9__gnu_cxx17__normal_iteratorIPKSt6vectorIS1_IcSaIcEESaIS3_EES1_IS5_SaIS5_EEEC2ERKS7_
FNDA:1404,_ZN9__gnu_cxx17__normal_iteratorIPKSt6vectorIS1_IcSaIcEESaIS3_EES1_IS5_SaIS5_EEEC2ERKS7_
FN:1010,_ZN9__gnu_cxx17__normal_iteratorIPiSt6vectorIiSaIiEEEC2ERKS1_
FNDA:212,_ZN9__gnu_cxx17__normal_iteratorIPiSt6vectorIiSaIiEEEC2ERKS1_
FN:1010,_ZN9__gnu_cxx17__normal_iteratorIPcSt6vectorIcSaIcEEEC2ERKS1_
FNDA:0,_ZN9__gnu_cxx17__normal_iteratorIPcSt6vectorIcSaIcEEEC2ERKS1_
FN:1010,_ZN9__gnu_cxx17__normal_iteratorIPKcSt6vectorIcSaIcEEEC2ERKS2_
FNDA:53532,_ZN9__gnu_cxx17__normal_iteratorIPKcSt6vectorIcSaIcEEEC2ERKS2_
FN:1010,_ZN9__gnu_cxx17__normal_iteratorIPKiSt6vectorIiSaIiEEEC2ERKS2_
FNDA:4,_ZN9__gnu_cxx17__normal_iteratorIPKiSt6vectorIiSaIiEEEC2ERKS2_
FN:1010,_ZN9__gnu_cxx17__normal_iteratorIPSt4pairIiiESt6vectorIS2_SaIS2_EEEC2ERKS3_
FNDA:24214,_ZN9__gnu_cxx17__normal_iteratorIPSt4pairIiiESt6vectorIS2_SaIS2_EEEC2ERKS3_
FN:1010,_ZN9__gnu_cxx17__normal_iteratorIPSt6vectorIcSaIcEES1_IS3_SaIS3_EEEC2ERKS4_
FNDA:0,_ZN9__gnu_cxx17__normal_iteratorIPSt6vectorIcSaIcEES1_IS3_SaIS3_EEEC2ERKS4_
FN:1025,_ZNK9__gnu_cxx17__normal_iteratorIPSt6vectorIS1_IcSaIcEESaIS3_EES1_IS5_SaIS5_EEEdeEv
FNDA:0,_ZNK9__gnu_cxx17__normal_iteratorIPSt6vectorIS1_IcSaIcEESaIS3_EES1_IS5_SaIS5_EEEdeEv
FN:1025,_ZNK9__gnu_cxx17__normal_iteratorIPSt4pairIiiESt6vectorIS2_SaIS2_EEEdeEv
FNDA:12100,_ZNK9__gnu_cxx17__normal_iteratorIPSt4pairIiiESt6vectorIS2_SaIS2_EEEdeEv
FN:1025,_ZNK9__gnu_cxx17__normal_iteratorIPSt6vectorIcSaIcEES1_IS3_SaIS3_EEEdeEv
FNDA:0,_ZNK9__gnu_cxx17__normal_iteratorIPSt6vectorIcSaIcEES1_IS3_SaIS3_EEEdeEv
FN:1025,_ZNK9__gnu_cxx17__normal_iteratorIPiSt6vectorIiSaIiEEEdeEv
FNDA:4,_ZNK9__gnu_cxx17__normal_iteratorIPiSt6vectorIiSaIiEEEdeEv
FN:1025,_ZNK9__gnu_cxx17__normal_iteratorIPKSt6vectorIcSaIcEES1_IS3_SaIS3_EEEdeEv
FNDA:26586,_ZNK9__gnu_cxx17__normal_iteratorIPKSt6vectorIcSaIcEES1_IS3_SaIS3_EEEdeEv
FN:1025,_ZNK9__gnu_cxx17__normal_iteratorIPKSt6vectorIS1_IcSaIcEESaIS3_EES1_IS5_SaIS5_EEEdeEv
FNDA:764,_ZNK9__gnu_cxx17__normal_iteratorIPKSt6vectorIS1_IcSaIcEESaIS3_EES1_IS5_SaIS5_EEEdeEv
FN:1035,_ZN9__gnu_cxx17__normal_iteratorIPKSt6vectorIcSaIcEES1_IS3_SaIS3_EEEppEv
FNDA:26586,_ZN9__gnu_cxx17__normal_iteratorIPKSt6vectorIcSaIcEES1_IS3_SaIS3_EEEppEv
FN:1035,_ZN9__gnu_cxx17__normal_iteratorIPKSt6vectorIS1_IcSaIcEESaIS3_EES1_IS5_SaIS5_EEEppEv
FNDA:764,_ZN9__gnu_cxx17__normal_iteratorIPKSt6vectorIS1_IcSaIcEESaIS3_EES1_IS5_SaIS5_EEEppEv
FN:1083,_ZNK9__gnu_cxx17__normal_iteratorIPiSt6vectorIiSaIiEEEmiEl
FNDA:4,_ZNK9__gnu_cxx17__normal_iteratorIPiSt6vectorIiSaIiEEEmiEl
FN:1083,_ZNK9__gnu_cxx17__normal_iteratorIPSt6vectorIcSaIcEES1_IS3_SaIS3_EEEmiEl
FNDA:0,_ZNK9__gnu_cxx17__normal_iteratorIPSt6vectorIcSaIcEES1_IS3_SaIS3_EEEmiEl
FN:1083,_ZNK9__gnu_cxx17__normal_iteratorIPSt6vectorIS1_IcSaIcEESaIS3_EES1_IS5_SaIS5_EEEmiEl
FNDA:0,_ZNK9__gnu_cxx17__normal_iteratorIPSt6vectorIS1_IcSaIcEESaIS3_EES1_IS5_SaIS5_EEEmiEl
FN:1083,_ZNK9__gnu_cxx17__normal_iteratorIPSt4pairIiiESt6vectorIS2_SaIS2_EEEmiEl
FNDA:12100,_ZNK9__gnu_cxx17__normal_iteratorIPSt4pairIiiESt6vectorIS2_SaIS2_EEEmiEl
FN:1088,_ZNK9__gnu_cxx17__normal_iteratorIPKcSt6vectorIcSaIcEEE4baseEv
FNDA:53532,_ZNK9__gnu_cxx17__normal_iteratorIPKcSt6vectorIcSaIcEEE4baseEv
FN:1088,_ZNK9__gnu_cxx17__normal_iteratorIPSt6vectorIS1_IcSaIcEESaIS3_EES1_IS5_SaIS5_EEE4baseEv
FNDA:96,_ZNK9__gnu_cxx17__normal_iteratorIPSt6vectorIS1_IcSaIcEESaIS3_EES1_IS5_SaIS5_EEE4baseEv
FN:1088,_ZNK9__gnu_cxx17__normal_iteratorIPKSt6vectorIS1_IcSaIcEESaIS3_EES1_IS5_SaIS5_EEE4baseEv
FNDA:2932,_ZNK9__gnu_cxx17__normal_iteratorIPKSt6vectorIS1_IcSaIcEESaIS3_EES1_IS5_SaIS5_EEE4baseEv
FN:1088,_ZNK9__gnu_cxx17__normal_iteratorIPiSt6vectorIiSaIiEEE4baseEv
FNDA:408,_ZNK9__gnu_cxx17__normal_iteratorIPiSt6vectorIiSaIiEEE4baseEv
FN:1088,_ZNK9__gnu_cxx17__normal_iteratorIPKSt6vectorIcSaIcEES1_IS3_SaIS3_EEE4baseEv
FNDA:59080,_ZNK9__gnu_cxx17__normal_iteratorIPKSt6vectorIcSaIcEES1_IS3_SaIS3_EEE4baseEv
FN:1088,_ZNK9__gnu_cxx17__normal_iteratorIPcSt6vectorIcSaIcEEE4baseEv
FNDA:0,_ZNK9__gnu_cxx17__normal_iteratorIPcSt6vectorIcSaIcEEE4baseEv
FN:1088,_ZNK9__gnu_cxx17__normal_iteratorIPSt4pairIiiESt6vectorIS2_SaIS2_EEE4baseEv
FNDA:28,_ZNK9__gnu_cxx17__normal_iteratorIPSt4pairIiiESt6vectorIS2_SaIS2_EEE4baseEv
FN:1088,_ZNK9__gnu_cxx17__normal_iteratorIPKiSt6vectorIiSaIiEEE4baseEv
FNDA:4,_ZNK9__gnu_cxx17__normal_iteratorIPKiSt6vectorIiSaIiEEE4baseEv
FN:1088,_ZNK9__gnu_cxx17__normal_iteratorIPSt6vectorIcSaIcEES1_IS3_SaIS3_EEE4baseEv
FNDA:0,_ZNK9__gnu_cxx17__normal_iteratorIPSt6vectorIcSaIcEES1_IS3_SaIS3_EEE4baseEv
FN:1145,_ZN9__gnu_cxxneIPKSt6vectorIS1_IcSaIcEESaIS3_EES1_IS5_SaIS5_EEEEbRKNS_17__normal_iteratorIT_T0_EESF_
FNDA:1466,_ZN9__gnu_cxxneIPKSt6vectorIS1_IcSaIcEESaIS3_EES1_IS5_SaIS5_EEEEbRKNS_17__normal_iteratorIT_T0_EESF_
FN:1145,_ZN9__gnu_cxxneIPKSt6vectorIcSaIcEES1_IS3_SaIS3_EEEEbRKNS_17__normal_iteratorIT_T0_EESD_
FNDA:29540,_ZN9__gnu_cxxneIPKSt6vectorIcSaIcEES1_IS3_SaIS3_EEEEbRKNS_17__normal_iteratorIT_T0_EESD_
FN:1234,_ZN9__gnu_cxxmiIPSt4pairIiiESt6vectorIS2_SaIS2_EEEENS_17__normal_iteratorIT_T0_E15difference_typeERKSA_SD_
FNDA:7,_ZN9__gnu_cxxmiIPSt4pairIiiESt6vectorIS2_SaIS2_EEEENS_17__normal_iteratorIT_T0_E15difference_typeERKSA_SD_
FN:1234,_ZN9__gnu_cxxmiIPcSt6vectorIcSaIcEEEENS_17__normal_iteratorIT_T0_E15difference_typeERKS8_SB_
FNDA:0,_ZN9__gnu_cxxmiIPcSt6vectorIcSaIcEEEENS_17__normal_iteratorIT_T0_E15difference_typeERKS8_SB_
FN:1234,_ZN9__gnu_cxxmiIPiSt6vectorIiSaIiEEEENS_17__normal_iteratorIT_T0_E15difference_typeERKS8_SB_
FNDA:102,_ZN9__gnu_cxxmiIPiSt6vectorIiSaIiEEEENS_17__normal_iteratorIT_T0_E15difference_typeERKS8_SB_
FN:1234,_ZN9__gnu_cxxmiIPSt6vectorIcSaIcEES1_IS3_SaIS3_EEEENS_17__normal_iteratorIT_T0_E15difference_typeERKSA_SD_
FNDA:0,_ZN9__gnu_cxxmiIPSt6vectorIcSaIcEES1_IS3_SaIS3_EEEENS_17__normal_iteratorIT_T0_E15difference_typeERKSA_SD_
FN:1234,_ZN9__gnu_cxxmiIPSt6vectorIS1_IcSaIcEESaIS3_EES1_IS5_SaIS5_EEEENS_17__normal_iteratorIT_T0_E15difference_typeERKSC_SF_
FNDA:24,_ZN9__gnu_cxxmiIPSt6vectorIS1_IcSaIcEESaIS3_EES1_IS5_SaIS5_EEEENS_17__normal_iteratorIT_T0_E15difference_typeERKSC_SF_
FN:1257,_ZSt12__niter_baseIPKcSt6vectorIcSaIcEEET_N9__gnu_cxx17__normal_iteratorIS5_T0_EE
FNDA:53532,_ZSt12__niter_baseIPKcSt6vectorIcSaIcEEET_N9__gnu_cxx17__normal_iteratorIS5_T0_EE
FN:1257,_ZSt12__niter_baseIPKiSt6vectorIiSaIiEEET_N9__gnu_cxx17__normal_iteratorIS5_T0_EE
FNDA:4,_ZSt12__niter_baseIPKiSt6vectorIiSaIiEEET_N9__gnu_cxx17__normal_iteratorIS5_T0_EE
FNF:39
FNH:29
DA:1010,0
DA:1011,0
DA:1010,24214
DA:1011,24214
DA:1010,4
DA:1011,4
DA:1010,53532
DA:1011,53532
DA:1010,0
DA:1011,0
DA:1010,212
DA:1011,212
DA:1010,1404
DA:1011,1404
DA:1010,48
DA:1011,48
DA:1010,5908
DA:1011,5908
DA:1025,764
DA:1026,764
DA:1025,26586
DA:1026,26586
DA:1025,4
DA:1026,4
DA:1025,0
DA:1026,0
DA:1025,0
DA:1026,0
DA:1025,12100
DA:1026,12100
DA:1035,764
DA:1037,764
DA:1038,764
DA:1035,26586
DA:1037,26586
DA:1038,26586
DA:1083,4
DA:1084,4
DA:1083,0
DA:1084,0
DA:1083,0
DA:1084,0
DA:1083,12100
DA:1084,12100
DA:1088,4
DA:1089,4
DA:1088,53532
DA:1089,53532
DA:1088,2932
DA:1089,2932
DA:1088,59080
DA:1089,59080
DA:1088,0
DA:1089,0
DA:1088,28
DA:1089,28
DA:1088,0
DA:1089,0
DA:1088,408
DA:1089,408
DA:1088,96
DA:1089,96
DA:1145,1466
DA:1148,1466
DA:1145,29540
DA:1148,29540
DA:1234,0
DA:1237,0
DA:1234,7
DA:1237,7
DA:1234,0
DA:1237,0
DA:1234,102
DA:1237,102
DA:1234,24
DA:1237,24
DA:1257,4
DA:1259,4
DA:1257,53532
DA:1259,53532
LF:80
LH:60
end_of_record
SF:/usr/include/c++/11/bits/char_traits.h
FN:106,_ZN9__gnu_cxx11char_traitsIcE2eqERKcS3_
FNDA:0,_ZN9__gnu_cxx11char_traitsIcE2eqERKcS3_
FN:167,_ZN9__gnu_cxx11char_traitsIcE6lengthEPKc
FNDA:0,_ZN9__gnu_cxx11char_traitsIcE6lengthEPKc
FN:393,_ZNSt11char_traitsIcE6lengthEPKc
FNDA:0,_ZNSt11char_traitsIcE6lengthEPKc
FNF:3
FNH:0
DA:106,0
DA:107,0
DA:167,0
DA:170,0
DA:171,0
DA:172,0
DA:173,0
DA:290,0
DA:393,0
DA:396,0
DA:397,0
DA:399,0
LF:12
LH:0
end_of_record
SF:/usr/include/c++/11/bits/stl_vector.h
FN:97,_ZNSt12_Vector_baseISt6vectorIcSaIcEESaIS2_EE17_Vector_impl_dataC2Ev
FNDA:2974,_ZNSt12_Vector_baseISt6vectorIcSaIcEESaIS2_EE17_Vector_impl_dataC2Ev
FN:97,_ZNSt12_Vector_baseISt4pairIiiESaIS1_EE17_Vector_impl_dataC2Ev
FNDA:1,_ZNSt12_Vector_baseISt4pairIiiESaIS1_EE17_Vector_impl_dataC2Ev
FN:97,_ZNSt12_Vector_baseIcSaIcEE17_Vector_impl_dataC2Ev
FNDA:26786,_ZNSt12_Vector_baseIcSaIcEE17_Vector_impl_dataC2Ev
FN:97,_ZNSt12_Vector_baseISt6vectorIS0_IcSaIcEESaIS2_EESaIS4_EE17_Vector_impl_dataC2Ev
FNDA:724,_ZNSt12_Vector_baseISt6vectorIS0_IcSaIcEESaIS2_EESaIS4_EE17_Vector_impl_dataC2Ev
FN:97,_ZNSt12_Vector_baseIiSaIiEE17_Vector_impl_dataC2Ev
FNDA:24,_ZNSt12_Vector_baseIiSaIiEE17_Vector_impl_dataC2Ev
FN:102,_ZNSt12_Vector_baseIcSaIcEE17_Vector_impl_dataC2EOS2_
FNDA:0,_ZNSt12_Vector_baseIcSaIcEE17_Vector_impl_dataC2EOS2_
FN:102,_ZNSt12_Vector_baseISt6vectorIcSaIcEESaIS2_EE17_Vector_impl_dataC2EOS5_
FNDA:7,_ZNSt12_Vector_baseISt6vectorIcSaIcEESaIS2_EE17_Vector_impl_dataC2EOS5_
FN:109,_ZNSt12_Vector_baseISt6vectorIS0_IcSaIcEESaIS2_EESaIS4_EE17_Vector_impl_data12_M_copy_dataERKS7_
FNDA:0,_ZNSt12_Vector_baseISt6vectorIS0_IcSaIcEESaIS2_EESaIS4_EE17_Vector_impl_data12_M_copy_dataERKS7_
FN:117,_ZNSt12_Vector_baseISt6vectorIS0_IcSaIcEESaIS2_EESaIS4_EE17_Vector_impl_data12_M_swap_dataERS7_
FNDA:0,_ZNSt12_Vector_baseISt6vectorIS0_IcSaIcEESaIS2_EESaIS4_EE17_Vector_impl_data12_M_swap_dataERS7_
FN:131,_ZNSt12_Vector_baseISt4pairIiiESaIS1_EE12_Vector_implC2Ev
FNDA:1,_ZNSt12_Vector_baseISt4pairIiiESaIS1_EE12_Vector_implC2Ev
FN:131,_ZNSt12_Vector_baseIcSaIcEE12_Vector_implC2Ev
FNDA:0,_ZNSt12_Vector_baseIcSaIcEE12_Vector_implC2Ev
FN:131,_ZNSt12_Vector_baseISt6vectorIcSaIcEESaIS2_EE12_Vector_implC2Ev
FNDA:0,_ZNSt12_Vector_baseISt6vectorIcSaIcEESaIS2_EE12_Vector_implC2Ev
FN:131,_ZNSt12_Vector_baseIiSaIiEE12_Vector_implC2Ev
FNDA:22,_ZNSt12_Vector_baseIiSaIiEE12_Vector_implC2Ev
FN:131,_ZNSt12_Vector_baseISt6vectorIS0_IcSaIcEESaIS2_EESaIS4_EE12_Vector_implC2Ev
FNDA:22,_ZNSt12_Vector_baseISt6vectorIS0_IcSaIcEESaIS2_EESaIS4_EE12_Vector_implC2Ev
FN:136,_ZNSt12_Vector_baseIiSaIiEE12_Vector_implC2ERKS0_
FNDA:2,_ZNSt12_Vector_baseIiSaIiEE12_Vector_implC2ERKS0_
FN:136,_ZNSt12_Vector_baseISt6vectorIcSaIcEESaIS2_EE12_Vector_implC2ERKS3_
FNDA:2974,_ZNSt12_Vector_baseISt6vectorIcSaIcEESaIS2_EE12_Vector_implC2ERKS3_
FN:136,_ZNSt12_Vector_baseISt6vectorIS0_IcSaIcEESaIS2_EESaIS4_EE12_Vector_implC2ERKS5_
FNDA:702,_ZNSt12_Vector_baseISt6vectorIS0_IcSaIcEESaIS2_EESaIS4_EE12_Vector_implC2ERKS5_
FN:136,_ZNSt12_Vector_baseIcSaIcEE12_Vector_implC2ERKS0_
FNDA:26786,_ZNSt12_Vector_baseIcSaIcEE12_Vector_implC2ERKS0_
FN:143,_ZNSt12_Vector_baseISt6vectorIcSaIcEESaIS2_EE12_Vector_implC2EOS5_
FNDA:7,_ZNSt12_Vector_baseISt6vectorIcSaIcEESaIS2_EE12_Vector_implC2EOS5_
FN:143,_ZNSt12_Vector_baseIcSaIcEE12_Vector_implC2EOS2_
FNDA:0,_ZNSt12_Vector_baseIcSaIcEE12_Vector_implC2EOS2_
FN:276,_ZNSt12_Vector_baseISt4pairIiiESaIS1_EE19_M_get_Tp_allocatorEv
FNDA:697,_ZNSt12_Vector_baseISt4pairIiiESaIS1_EE19_M_get_Tp_allocatorEv
FN:276,_ZNSt12_Vector_baseIiSaIiEE19_M_get_Tp_allocatorEv
FNDA:232,_ZNSt12_Vector_baseIiSaIiEE19_M_get_Tp_allocatorEv
FN:276,_ZNSt12_Vector_baseIcSaIcEE19_M_get_Tp_allocatorEv
FNDA:53572,_ZNSt12_Vector_baseIcSaIcEE19_M_get_Tp_allocatorEv
FN:276,_ZNSt12_Vector_baseISt6vectorIcSaIcEESaIS2_EE19_M_get_Tp_allocatorEv
FNDA:5955,_ZNSt12_Vector_baseISt6vectorIcSaIcEESaIS2_EE19_M_get_Tp_allocatorEv
FN:276,_ZNSt12_Vector_baseISt6vectorIS0_IcSaIcEESaIS2_EESaIS4_EE19_M_get_Tp_allocatorEv
FNDA:2156,_ZNSt12_Vector_baseISt6vectorIS0_IcSaIcEESaIS2_EESaIS4_EE19_M_get_Tp_allocatorEv
FN:280,_ZNKSt12_Vector_baseISt6vectorIS0_IcSaIcEESaIS2_EESaIS4_EE19_M_get_Tp_allocatorEv
FNDA:750,_ZNKSt12_Vector_baseISt6vectorIS0_IcSaIcEESaIS2_EESaIS4_EE19_M_get_Tp_allocatorEv
FN:280,_ZNKSt12_Vector_baseISt6vectorIcSaIcEESaIS2_EE19_M_get_Tp_allocatorEv
FNDA:2954,_ZNKSt12_Vector_baseISt6vectorIcSaIcEESaIS2_EE19_M_get_Tp_allocatorEv
FN:280,_ZNKSt12_Vector_baseIcSaIcEE19_M_get_Tp_allocatorEv
FNDA:26766,_ZNKSt12_Vector_baseIcSaIcEE19_M_get_Tp_allocatorEv
FN:280,_ZNKSt12_Vector_baseIiSaIiEE19_M_get_Tp_allocatorEv
FNDA:206,_ZNKSt12_Vector_baseIiSaIiEE19_M_get_Tp_allocatorEv
FN:280,_ZNKSt12_Vector_baseISt4pairIiiESaIS1_EE19_M_get_Tp_allocatorEv
FNDA:14,_ZNKSt12_Vector_baseISt4pairIiiESaIS1_EE19_M_get_Tp_allocatorEv
FN:284,_ZNKSt12_Vector_baseISt6vectorIS0_IcSaIcEESaIS2_EESaIS4_EE13get_allocatorEv
FNDA:0,_ZNKSt12_Vector_baseISt6vectorIS0_IcSaIcEESaIS2_EESaIS4_EE13get_allocatorEv
FN:288,_ZNSt12_Vector_baseISt6vectorIS0_IcSaIcEESaIS2_EESaIS4_EEC2Ev
FNDA:22,_ZNSt12_Vector_baseISt6vectorIS0_IcSaIcEESaIS2_EESaIS4_EEC2Ev
FN:288,_ZNSt12_Vector_baseIcSaIcEEC2Ev
FNDA:0,_ZNSt12_Vector_baseIcSaIcEEC2Ev
FN:288,_ZNSt12_Vector_baseISt6vectorIcSaIcEESaIS2_EEC2Ev
FNDA:0,_ZNSt12_Vector_baseISt6vectorIcSaIcEESaIS2_EEC2Ev
FN:288,_ZNSt12_Vector_baseIiSaIiEEC2Ev
FNDA:22,_ZNSt12_Vector_baseIiSaIiEEC2Ev
FN:288,_ZNSt12_Vector_baseISt4pairIiiESaIS1_EEC2Ev
FNDA:1,_ZNSt12_Vector_baseISt4pairIiiESaIS1_EEC2Ev
FN:293,_ZNSt12_Vector_baseISt6vectorIS0_IcSaIcEESaIS2_EESaIS4_EEC2ERKS5_
FNDA:0,_ZNSt12_Vector_baseISt6vectorIS0_IcSaIcEESaIS2_EESaIS4_EEC2ERKS5_
FN:303,_ZNSt12_Vector_baseIiSaIiEEC2EmRKS0_
FNDA:2,_ZNSt12_Vector_baseIiSaIiEEC2EmRKS0_
FN:303,_ZNSt12_Vector_baseIcSaIcEEC2EmRKS0_
FNDA:26786,_ZNSt12_Vector_baseIcSaIcEEC2EmRKS0_
FN:303,_ZNSt12_Vector_baseISt6vectorIS0_IcSaIcEESaIS2_EESaIS4_EEC2EmRKS5_
FNDA:702,_ZNSt12_Vector_baseISt6vectorIS0_IcSaIcEESaIS2_EESaIS4_EEC2EmRKS5_
FN:303,_ZNSt12_Vector_baseISt6vectorIcSaIcEESaIS2_EEC2EmRKS3_
FNDA:2974,_ZNSt12_Vector_baseISt6vectorIcSaIcEESaIS2_EEC2EmRKS3_
FN:308,_ZNSt12_Vector_baseIcSaIcEEC2EOS1_
FNDA:0,_ZNSt12_Vector_baseIcSaIcEEC2EOS1_
FN:308,_ZNSt12_Vector_baseISt6vectorIcSaIcEESaIS2_EEC2EOS4_
FNDA:7,_ZNSt12_Vector_baseISt6vectorIcSaIcEESaIS2_EEC2EOS4_
FN:333,_ZNSt12_Vector_baseISt6vectorIcSaIcEESaIS2_EED2Ev
FNDA:2981,_ZNSt12_Vector_baseISt6vectorIcSaIcEESaIS2_EED2Ev
FN:333,_ZNSt12_Vector_baseIiSaIiEED2Ev
FNDA:24,_ZNSt12_Vector_baseIiSaIiEED2Ev
FN:333,_ZNSt12_Vector_baseIcSaIcEED2Ev
FNDA:26786,_ZNSt12_Vector_baseIcSaIcEED2Ev
FN:333,_ZNSt12_Vector_baseISt4pairIiiESaIS1_EED2Ev
FNDA:1,_ZNSt12_Vector_baseISt4pairIiiESaIS1_EED2Ev
FN:333,_ZNSt12_Vector_baseISt6vectorIS0_IcSaIcEESaIS2_EESaIS4_EED2Ev
FNDA:724,_ZNSt12_Vector_baseISt6vectorIS0_IcSaIcEESaIS2_EESaIS4_EED2Ev
FN:343,_ZNSt12_Vector_baseIiSaIiEE11_M_allocateEm
FNDA:104,_ZNSt12_Vector_baseIiSaIiEE11_M_allocateEm
FN:343,_ZNSt12_Vector_baseISt4pairIiiESaIS1_EE11_M_allocateEm
FNDA:7,_ZNSt12_Vector_baseISt4pairIiiESaIS1_EE11_M_allocateEm
FN:343,_ZNSt12_Vector_baseISt6vectorIS0_IcSaIcEESaIS2_EESaIS4_EE11_M_allocateEm
FNDA:726,_ZNSt12_Vector_baseISt6vectorIS0_IcSaIcEESaIS2_EESaIS4_EE11_M_allocateEm
FN:343,_ZNSt12_Vector_baseISt6vectorIcSaIcEESaIS2_EE11_M_allocateEm
FNDA:2974,_ZNSt12_Vector_baseISt6vectorIcSaIcEESaIS2_EE11_M_allocateEm
FN:343,_ZNSt12_Vector_baseIcSaIcEE11_M_allocateEm
FNDA:26786,_ZNSt12_Vector_baseIcSaIcEE11_M_allocateEm
FN:350,_ZNSt12_Vector_baseISt6vectorIS0_IcSaIcEESaIS2_EESaIS4_EE13_M_deallocateEPS4_m
FNDA:748,_ZNSt12_Vector_baseISt6vectorIS0_IcSaIcEESaIS2_EESaIS4_EE13_M_deallocateEPS4_m
FN:350,_ZNSt12_Vector_baseISt4pairIiiESaIS1_EE13_M_deallocateEPS1_m
FNDA:8,_ZNSt12_Vector_baseISt4pairIiiESaIS1_EE13_M_deallocateEPS1_m
FN:350,_ZNSt12_Vector_baseISt6vectorIcSaIcEESaIS2_EE13_M_deallocateEPS2_m
FNDA:2981,_ZNSt12_Vector_baseISt6vectorIcSaIcEESaIS2_EE13_M_deallocateEPS2_m
FN:350,_ZNSt12_Vector_baseIiSaIiEE13_M_deallocateEPim
FNDA:126,_ZNSt12_Vector_baseIiSaIiEE13_M_deallocateEPim
FN:350,_ZNSt12_Vector_baseIcSaIcEE13_M_deallocateEPcm
FNDA:26786,_ZNSt12_Vector_baseIcSaIcEE13_M_deallocateEPcm
FN:359,_ZNSt12_Vector_baseISt6vectorIS0_IcSaIcEESaIS2_EESaIS4_EE17_M_create_storageEm
FNDA:702,_ZNSt12_Vector_baseISt6vectorIS0_IcSaIcEESaIS2_EESaIS4_EE17_M_create_storageEm
FN:359,_ZNSt12_Vector_baseISt6vectorIcSaIcEESaIS2_EE17_M_create_storageEm
FNDA:2974,_ZNSt12_Vector_baseISt6vectorIcSaIcEESaIS2_EE17_M_create_storageEm
FN:359,_ZNSt12_Vector_baseIiSaIiEE17_M_create_storageEm
FNDA:2,_ZNSt12_Vector_baseIiSaIiEE17_M_create_storageEm
FN:359,_ZNSt12_Vector_baseIcSaIcEE17_M_create_storageEm
FNDA:26786,_ZNSt12_Vector_baseIcSaIcEE17_M_create_storageEm
FN:453,_ZNSt6vectorISt4pairIiiESaIS1_EE14_S_do_relocateEPS1_S4_S4_RS2_St17integral_constantIbLb1EE
FNDA:14,_ZNSt6vectorISt4pairIiiESaIS1_EE14_S_do_relocateEPS1_S4_S4_RS2_St17integral_constantIbLb1EE
FN:453,_ZNSt6vectorIiSaIiEE14_S_do_relocateEPiS2_S2_RS0_St17integral_constantIbLb1EE
FNDA:204,_ZNSt6vectorIiSaIiEE14_S_do_relocateEPiS2_S2_RS0_St17integral_constantIbLb1EE
FN:453,_ZNSt6vectorIS_IcSaIcEESaIS1_EE14_S_do_relocateEPS1_S4_S4_RS2_St17integral_constantIbLb1EE
FNDA:0,_ZNSt6vectorIS_IcSaIcEESaIS1_EE14_S_do_relocateEPS1_S4_S4_RS2_St17integral_constantIbLb1EE
FN:453,_ZNSt6vectorIcSaIcEE14_S_do_relocateEPcS2_S2_RS0_St17integral_constantIbLb1EE
FNDA:0,_ZNSt6vectorIcSaIcEE14_S_do_relocateEPcS2_S2_RS0_St17integral_constantIbLb1EE
FN:453,_ZNSt6vectorIS_IS_IcSaIcEESaIS1_EESaIS3_EE14_S_do_relocateEPS3_S6_S6_RS4_St17integral_constantIbLb1EE
FNDA:48,_ZNSt6vectorIS_IS_IcSaIcEESaIS1_EESaIS3_EE14_S_do_relocateEPS3_S6_S6_RS4_St17integral_constantIbLb1EE
FN:465,_ZNSt6vectorISt4pairIiiESaIS1_EE11_S_relocateEPS1_S4_S4_RS2_
FNDA:14,_ZNSt6vectorISt4pairIiiESaIS1_EE11_S_relocateEPS1_S4_S4_RS2_
FN:465,_ZNSt6vectorIcSaIcEE11_S_relocateEPcS2_S2_RS0_
FNDA:0,_ZNSt6vectorIcSaIcEE11_S_relocateEPcS2_S2_RS0_
FN:465,_ZNSt6vectorIS_IS_IcSaIcEESaIS1_EESaIS3_EE11_S_relocateEPS3_S6_S6_RS4_
FNDA:48,_ZNSt6vectorIS_IS_IcSaIcEESaIS1_EESaIS3_EE11_S_relocateEPS3_S6_S6_RS4_
FN:465,_ZNSt6vectorIiSaIiEE11_S_relocateEPiS2_S2_RS0_
FNDA:204,_ZNSt6vectorIiSaIiEE11_S_relocateEPiS2_S2_RS0_
FN:465,_ZNSt6vectorIS_IcSaIcEESaIS1_EE11_S_relocateEPS1_S4_S4_RS2_
FNDA:0,_ZNSt6vectorIS_IcSaIcEESaIS1_EE11_S_relocateEPS1_S4_S4_RS2_
FN:487,_ZNSt6vectorIS_IcSaIcEESaIS1_EEC2Ev
FNDA:0,_ZNSt6vectorIS_IcSaIcEESaIS1_EEC2Ev
FN:487,_ZNSt6vectorIiSaIiEEC2Ev
FNDA:22,_ZNSt6vectorIiSaIiEEC2Ev
FN:487,_ZNSt6vectorISt4pairIiiESaIS1_EEC2Ev
FNDA:1,_ZNSt6vectorISt4pairIiiESaIS1_EEC2Ev
FN:487,_ZNSt6vectorIcSaIcEEC2Ev
FNDA:0,_ZNSt6vectorIcSaIcEEC2Ev
FN:487,_ZNSt6vectorIS_IS_IcSaIcEESaIS1_EESaIS3_EEC2Ev
FNDA:22,_ZNSt6vectorIS_IS_IcSaIcEESaIS1_EESaIS3_EEC2Ev
FN:497,_ZNSt6vectorIS_IS_IcSaIcEESaIS1_EESaIS3_EEC2ERKS4_
FNDA:0,_ZNSt6vectorIS_IS_IcSaIcEESaIS1_EESaIS3_EEC2ERKS4_
FN:522,_ZNSt6vectorIS_IcSaIcEESaIS1_EEC2EmRKS1_RKS2_
FNDA:20,_ZNSt6vectorIS_IcSaIcEESaIS1_EEC2EmRKS1_RKS2_
FN:522,_ZNSt6vectorIcSaIcEEC2EmRKcRKS0_
FNDA:20,_ZNSt6vectorIcSaIcEEC2EmRKcRKS0_
FN:553,_ZNSt6vectorIcSaIcEEC2ERKS1_
FNDA:26766,_ZNSt6vectorIcSaIcEEC2ERKS1_
FN:553,_ZNSt6vectorIS_IS_IcSaIcEESaIS1_EESaIS3_EEC2ERKS5_
FNDA:702,_ZNSt6vectorIS_IS_IcSaIcEESaIS1_EESaIS3_EEC2ERKS5_
FN:553,_ZNSt6vectorIS_IcSaIcEESaIS1_EEC2ERKS3_
FNDA:2954,_ZNSt6vectorIS_IcSaIcEESaIS1_EEC2ERKS3_
FN:553,_ZNSt6vectorIiSaIiEEC2ERKS1_
FNDA:2,_ZNSt6vectorIiSaIiEEC2ERKS1_
FN:572,_ZNSt6vectorIcSaIcEEC2EOS1_
FNDA:0,_ZNSt6vectorIcSaIcEEC2EOS1_
FN:572,_ZNSt6vectorIS_IcSaIcEESaIS1_EEC2EOS3_
FNDA:7,_ZNSt6vectorIS_IcSaIcEESaIS1_EEC2EOS3_
FN:678,_ZNSt6vectorIS_IS_IcSaIcEESaIS1_EESaIS3_EED2Ev
FNDA:724,_ZNSt6vectorIS_IS_IcSaIcEESaIS1_EESaIS3_EED2Ev
FN:678,_ZNSt6vectorIS_IcSaIcEESaIS1_EED2Ev
FNDA:2981,_ZNSt6vectorIS_IcSaIcEESaIS1_EED2Ev
FN:678,_ZNSt6vectorIcSaIcEED2Ev
FNDA:26786,_ZNSt6vectorIcSaIcEED2Ev
FN:678,_ZNSt6vectorISt4pairIiiESaIS1_EED2Ev
FNDA:1,_ZNSt6vectorISt4pairIiiESaIS1_EED2Ev
FN:678,_ZNSt6vectorIiSaIiEED2Ev
FNDA:24,_ZNSt6vectorIiSaIiEED2Ev
FN:709,_ZNSt6vectorIS_IS_IcSaIcEESaIS1_EESaIS3_EEaSEOS5_
FNDA:0,_ZNSt6vectorIS_IS_IcSaIcEESaIS1_EESaIS3_EEaSEOS5_
FN:811,_ZNSt6vectorIS_IS_IcSaIcEESaIS1_EESaIS3_EE5beginEv
FNDA:24,_ZNSt6vectorIS_IS_IcSaIcEESaIS1_EESaIS3_EE5beginEv
FN:811,_ZNSt6vectorIiSaIiEE5beginEv
FNDA:102,_ZNSt6vectorIiSaIiEE5beginEv
FN:811,_ZNSt6vectorIS_IcSaIcEESaIS1_EE5beginEv
FNDA:0,_ZNSt6vectorIS_IcSaIcEESaIS1_EE5beginEv
FN:811,_ZNSt6vectorIcSaIcEE5beginEv
FNDA:0,_ZNSt6vectorIcSaIcEE5beginEv
FN:811,_ZNSt6vectorISt4pairIiiESaIS1_EE5beginEv
FNDA:7,_ZNSt6vectorISt4pairIiiESaIS1_EE5beginEv
FN:820,_ZNKSt6vectorIS_IcSaIcEESaIS1_EE5beginEv
FNDA:2954,_ZNKSt6vectorIS_IcSaIcEESaIS1_EE5beginEv
FN:820,_ZNKSt6vectorIS_IS_IcSaIcEESaIS1_EESaIS3_EE5beginEv
FNDA:702,_ZNKSt6vectorIS_IS_IcSaIcEESaIS1_EESaIS3_EE5beginEv
FN:820,_ZNKSt6vectorIcSaIcEE5beginEv
FNDA:26766,_ZNKSt6vectorIcSaIcEE5beginEv
FN:820,_ZNKSt6vectorIiSaIiEE5beginEv
FNDA:2,_ZNKSt6vectorIiSaIiEE5beginEv
FN:829,_ZNSt6vectorIiSaIiEE3endEv
FNDA:106,_ZNSt6vectorIiSaIiEE3endEv
FN:829,_ZNSt6vectorISt4pairIiiESaIS1_EE3endEv
FNDA:12107,_ZNSt6vectorISt4pairIiiESaIS1_EE3endEv
FN:829,_ZNSt6vectorIcSaIcEE3endEv
FNDA:0,_ZNSt6vectorIcSaIcEE3endEv
FN:829,_ZNSt6vectorIS_IcSaIcEESaIS1_EE3endEv
FNDA:0,_ZNSt6vectorIS_IcSaIcEESaIS1_EE3endEv
FN:829,_ZNSt6vectorIS_IS_IcSaIcEESaIS1_EESaIS3_EE3endEv
FNDA:24,_ZNSt6vectorIS_IS_IcSaIcEESaIS1_EESaIS3_EE3endEv
FN:838,_ZNKSt6vectorIS_IS_IcSaIcEESaIS1_EESaIS3_EE3endEv
FNDA:702,_ZNKSt6vectorIS_IS_IcSaIcEESaIS1_EESaIS3_EE3endEv
FN:838,_ZNKSt6vectorIiSaIiEE3endEv
FNDA:2,_ZNKSt6vectorIiSaIiEE3endEv
FN:838,_ZNKSt6vectorIS_IcSaIcEESaIS1_EE3endEv
FNDA:2954,_ZNKSt6vectorIS_IcSaIcEESaIS1_EE3endEv
FN:838,_ZNKSt6vectorIcSaIcEE3endEv
FNDA:26766,_ZNKSt6vectorIcSaIcEE3endEv
FN:918,_ZNKSt6vectorISt4pairIiiESaIS1_EE4sizeEv
FNDA:19529,_ZNKSt6vectorISt4pairIiiESaIS1_EE4sizeEv
FN:918,_ZNKSt6vectorIS_IcSaIcEESaIS1_EE4sizeEv
FNDA:3154,_ZNKSt6vectorIS_IcSaIcEESaIS1_EE4sizeEv
FN:918,_ZNKSt6vectorIcSaIcEE4sizeEv
FNDA:28566,_ZNKSt6vectorIcSaIcEE4sizeEv
FN:918,_ZNKSt6vectorIS_IS_IcSaIcEESaIS1_EESaIS3_EE4sizeEv
FNDA:1520,_ZNKSt6vectorIS_IS_IcSaIcEESaIS1_EESaIS3_EE4sizeEv
FN:918,_ZNKSt6vectorIiSaIiEE4sizeEv
FNDA:933,_ZNKSt6vectorIiSaIiEE4sizeEv
FN:923,_ZNKSt6vectorISt4pairIiiESaIS1_EE8max_sizeEv
FNDA:14,_ZNKSt6vectorISt4pairIiiESaIS1_EE8max_sizeEv
FN:923,_ZNKSt6vectorIcSaIcEE8max_sizeEv
FNDA:0,_ZNKSt6vectorIcSaIcEE8max_sizeEv
FN:923,_ZNKSt6vectorIS_IcSaIcEESaIS1_EE8max_sizeEv
FNDA:0,_ZNKSt6vectorIS_IcSaIcEESaIS1_EE8max_sizeEv
FN:923,_ZNKSt6vectorIiSaIiEE8max_sizeEv
FNDA:204,_ZNKSt6vectorIiSaIiEE8max_sizeEv
FN:923,_ZNKSt6vectorIS_IS_IcSaIcEESaIS1_EESaIS3_EE8max_sizeEv
FNDA:48,_ZNKSt6vectorIS_IS_IcSaIcEESaIS1_EESaIS3_EE8max_sizeEv
FN:1043,_ZNSt6vectorIiSaIiEEixEm
FNDA:240,_ZNSt6vectorIiSaIiEEixEm
FN:1043,_ZNSt6vectorIS_IcSaIcEESaIS1_EEixEm
FNDA:125941,_ZNSt6vectorIS_IcSaIcEESaIS1_EEixEm
FN:1043,_ZNSt6vectorIS_IS_IcSaIcEESaIS1_EESaIS3_EEixEm
FNDA:3620,_ZNSt6vectorIS_IS_IcSaIcEESaIS1_EESaIS3_EEixEm
FN:1043,_ZNSt6vectorISt4pairIiiESaIS1_EEixEm
FNDA:37514,_ZNSt6vectorISt4pairIiiESaIS1_EEixEm
FN:1043,_ZNSt6vectorIcSaIcEEixEm
FNDA:124141,_ZNSt6vectorIcSaIcEEixEm
FN:1061,_ZNKSt6vectorIcSaIcEEixEm
FNDA:2558,_ZNKSt6vectorIcSaIcEEixEm
FN:1061,_ZNKSt6vectorIS_IcSaIcEESaIS1_EEixEm
FNDA:2558,_ZNKSt6vectorIS_IcSaIcEESaIS1_EEixEm
FN:1143,_ZNSt6vectorIS_IS_IcSaIcEESaIS1_EESaIS3_EE4backEv
FNDA:0,_ZNSt6vectorIS_IS_IcSaIcEESaIS1_EESaIS3_EE4backEv
FN:1143,_ZNSt6vectorIiSaIiEE4backEv
FNDA:4,_ZNSt6vectorIiSaIiEE4backEv
FN:1143,_ZNSt6vectorISt4pairIiiESaIS1_EE4backEv
FNDA:12100,_ZNSt6vectorISt4pairIiiESaIS1_EE4backEv
FN:1143,_ZNSt6vectorIS_IcSaIcEESaIS1_EE4backEv
FNDA:0,_ZNSt6vectorIS_IcSaIcEESaIS1_EE4backEv
FN:1187,_ZNSt6vectorIiSaIiEE9push_backERKi
FNDA:180,_ZNSt6vectorIiSaIiEE9push_backERKi
FN:1187,_ZNSt6vectorIS_IS_IcSaIcEESaIS1_EESaIS3_EE9push_backERKS3_
FNDA:764,_ZNSt6vectorIS_IS_IcSaIcEESaIS1_EESaIS3_EE9push_backERKS3_
FN:1187,_ZNSt6vectorIcSaIcEE9push_backERKc
FNDA:0,_ZNSt6vectorIcSaIcEE9push_backERKc
FN:1203,_ZNSt6vectorIiSaIiEE9push_backEOi
FNDA:4,_ZNSt6vectorIiSaIiEE9push_backEOi
FN:1203,_ZNSt6vectorISt4pairIiiESaIS1_EE9push_backEOS1_
FNDA:12100,_ZNSt6vectorISt4pairIiiESaIS1_EE9push_backEOS1_
FN:1203,_ZNSt6vectorIS_IcSaIcEESaIS1_EE9push_backEOS1_
FNDA:0,_ZNSt6vectorIS_IcSaIcEESaIS1_EE9push_backEOS1_
FN:1203,_ZNSt6vectorIS_IS_IcSaIcEESaIS1_EESaIS3_EE9push_backEOS3_
FNDA:0,_ZNSt6vectorIS_IS_IcSaIcEESaIS1_EESaIS3_EE9push_backEOS3_
FN:1498,_ZNSt6vectorIcSaIcEE5clearEv
FNDA:0,_ZNSt6vectorIcSaIcEE5clearEv
FN:1498,_ZNSt6vectorIS_IcSaIcEESaIS1_EE5clearEv
FNDA:0,_ZNSt6vectorIS_IcSaIcEESaIS1_EE5clearEv
FN:1498,_ZNSt6vectorIiSaIiEE5clearEv
FNDA:2,_ZNSt6vectorIiSaIiEE5clearEv
FN:1498,_ZNSt6vectorIS_IS_IcSaIcEESaIS1_EESaIS3_EE5clearEv
FNDA:703,_ZNSt6vectorIS_IS_IcSaIcEESaIS1_EESaIS3_EE5clearEv
FN:1498,_ZNSt6vectorISt4pairIiiESaIS1_EE5clearEv
FNDA:703,_ZNSt6vectorISt4pairIiiESaIS1_EE5clearEv
FN:1593,_ZNSt6vectorIS_IcSaIcEESaIS1_EE18_M_fill_initializeEmRKS1_
FNDA:20,_ZNSt6vectorIS_IcSaIcEESaIS1_EE18_M_fill_initializeEmRKS1_
FN:1593,_ZNSt6vectorIcSaIcEE18_M_fill_initializeEmRKc
FNDA:20,_ZNSt6vectorIcSaIcEE18_M_fill_initializeEmRKc
FN:1756,_ZNKSt6vectorIcSaIcEE12_M_check_lenEmPKc
FNDA:0,_ZNKSt6vectorIcSaIcEE12_M_check_lenEmPKc
FN:1756,_ZNKSt6vectorIiSaIiEE12_M_check_lenEmPKc
FNDA:102,_ZNKSt6vectorIiSaIiEE12_M_check_lenEmPKc
FN:1756,_ZNKSt6vectorIS_IS_IcSaIcEESaIS1_EESaIS3_EE12_M_check_lenEmPKc
FNDA:24,_ZNKSt6vectorIS_IS_IcSaIcEESaIS1_EESaIS3_EE12_M_check_lenEmPKc
FN:1756,_ZNKSt6vectorIS_IcSaIcEESaIS1_EE12_M_check_lenEmPKc
FNDA:0,_ZNKSt6vectorIS_IcSaIcEESaIS1_EE12_M_check_lenEmPKc
FN:1756,_ZNKSt6vectorISt4pairIiiESaIS1_EE12_M_check_lenEmPKc
FNDA:7,_ZNKSt6vectorISt4pairIiiESaIS1_EE12_M_check_lenEmPKc
FN:1767,_ZNSt6vectorIS_IcSaIcEESaIS1_EE17_S_check_init_lenEmRKS2_
FNDA:20,_ZNSt6vectorIS_IcSaIcEESaIS1_EE17_S_check_init_lenEmRKS2_
FN:1767,_ZNSt6vectorIcSaIcEE17_S_check_init_lenEmRKS0_
FNDA:20,_ZNSt6vectorIcSaIcEE17_S_check_init_lenEmRKS0_
FN:1776,_ZNSt6vectorIiSaIiEE11_S_max_sizeERKS0_
FNDA:204,_ZNSt6vectorIiSaIiEE11_S_max_sizeERKS0_
FN:1776,_ZNSt6vectorISt4pairIiiESaIS1_EE11_S_max_sizeERKS2_
FNDA:14,_ZNSt6vectorISt4pairIiiESaIS1_EE11_S_max_sizeERKS2_
FN:1776,_ZNSt6vectorIS_IS_IcSaIcEESaIS1_EESaIS3_EE11_S_max_sizeERKS4_
FNDA:48,_ZNSt6vectorIS_IS_IcSaIcEESaIS1_EESaIS3_EE11_S_max_sizeERKS4_
FN:1776,_ZNSt6vectorIS_IcSaIcEESaIS1_EE11_S_max_sizeERKS2_
FNDA:20,_ZNSt6vectorIS_IcSaIcEESaIS1_EE11_S_max_sizeERKS2_
FN:1776,_ZNSt6vectorIcSaIcEE11_S_max_sizeERKS0_
FNDA:20,_ZNSt6vectorIcSaIcEE11_S_max_sizeERKS0_
FN:1792,_ZNSt6vectorISt4pairIiiESaIS1_EE15_M_erase_at_endEPS1_
FNDA:703,_ZNSt6vectorISt4pairIiiESaIS1_EE15_M_erase_at_endEPS1_
FN:1792,_ZNSt6vectorIS_IS_IcSaIcEESaIS1_EESaIS3_EE15_M_erase_at_endEPS3_
FNDA:703,_ZNSt6vectorIS_IS_IcSaIcEESaIS1_EESaIS3_EE15_M_erase_at_endEPS3_
FN:1792,_ZNSt6vectorIS_IcSaIcEESaIS1_EE15_M_erase_at_endEPS1_
FNDA:0,_ZNSt6vectorIS_IcSaIcEESaIS1_EE15_M_erase_at_endEPS1_
FN:1792,_ZNSt6vectorIcSaIcEE15_M_erase_at_endEPc
FNDA:0,_ZNSt6vectorIcSaIcEE15_M_erase_at_endEPc
FN:1792,_ZNSt6vectorIiSaIiEE15_M_erase_at_endEPi
FNDA:2,_ZNSt6vectorIiSaIiEE15_M_erase_at_endEPi
FN:1815,_ZNSt6vectorIS_IS_IcSaIcEESaIS1_EESaIS3_EE14_M_move_assignEOS5_St17integral_constantIbLb1EE
FNDA:0,_ZNSt6vectorIS_IS_IcSaIcEESaIS1_EESaIS3_EE14_M_move_assignEOS5_St17integral_constantIbLb1EE
FNF:163
FNH:125
DA:97,26786
DA:98,26786
DA:99,26786
DA:97,2974
DA:98,2974
DA:99,2974
DA:97,24
DA:98,24
DA:99,24
DA:97,1
DA:98,1
DA:99,1
DA:97,724
DA:98,724
DA:99,724
DA:102,0
DA:103,0
DA:104,0
DA:105,0
DA:102,7
DA:103,7
DA:104,7
DA:105,7
DA:109,0
DA:111,0
DA:112,0
DA:113,0
DA:114,0
DA:117,0
DA:121,0
DA:122,0
DA:123,0
DA:124,0
DA:125,0
DA:131,0
DA:133,0
DA:134,0
DA:131,0
DA:133,0
DA:134,0
DA:131,22
DA:133,22
DA:134,22
DA:131,1
DA:133,1
DA:134,1
DA:131,22
DA:133,22
DA:134,22
DA:136,2
DA:137,2
DA:138,2
DA:136,26786
DA:137,26786
DA:138,26786
DA:136,702
DA:137,702
DA:138,702
DA:136,2974
DA:137,2974
DA:138,2974
DA:143,0
DA:144,0
DA:145,0
DA:143,7
DA:144,7
DA:145,7
DA:276,232
DA:277,232
DA:276,53572
DA:277,53572
DA:276,5955
DA:277,5955
DA:276,697
DA:277,697
DA:276,2156
DA:277,2156
DA:280,14
DA:281,14
DA:280,206
DA:281,206
DA:280,26766
DA:281,26766
DA:280,750
DA:281,750
DA:280,2954
DA:281,2954
DA:284,0
DA:285,0
DA:288,0
DA:288,0
DA:288,22
DA:288,1
DA:288,22
DA:293,0
DA:294,0
DA:303,2
DA:304,2
DA:305,2
DA:303,26786
DA:304,26786
DA:305,26786
DA:303,702
DA:304,702
DA:305,702
DA:303,2974
DA:304,2974
DA:305,2974
DA:308,0
DA:308,7
DA:333,26786
DA:335,26786
DA:336,26786
DA:337,26786
DA:333,24
DA:335,24
DA:336,24
DA:337,24
DA:333,2981
DA:335,2981
DA:336,2981
DA:337,2981
DA:333,1
DA:335,1
DA:336,1
DA:337,1
DA:333,724
DA:335,724
DA:336,724
DA:337,724
DA:343,7
DA:346,7
DA:343,2974
DA:346,2974
DA:343,26786
DA:346,26786
DA:343,104
DA:346,104
DA:343,726
DA:346,726
DA:350,26786
DA:353,26786
DA:354,26786
DA:355,26786
DA:350,126
DA:353,126
DA:354,104
DA:355,126
DA:350,2981
DA:353,2981
DA:354,2974
DA:355,2981
DA:350,8
DA:353,8
DA:354,7
DA:355,8
DA:350,748
DA:353,748
DA:354,726
DA:355,748
DA:359,2
DA:361,2
DA:362,2
DA:363,2
DA:364,2
DA:359,26786
DA:361,26786
DA:362,26786
DA:363,26786
DA:364,26786
DA:359,702
DA:361,702
DA:362,702
DA:363,702
DA:364,702
DA:359,2974
DA:361,2974
DA:362,2974
DA:363,2974
DA:364,2974
DA:453,0
DA:456,0
DA:453,14
DA:456,14
DA:453,0
DA:456,0
DA:453,204
DA:456,204
DA:453,48
DA:456,48
DA:465,0
DA:469,0
DA:465,14
DA:469,14
DA:465,0
DA:469,0
DA:465,204
DA:469,204
DA:465,48
DA:469,48
DA:487,0
DA:487,0
DA:487,22
DA:487,1
DA:487,22
DA:497,0
DA:498,0
DA:522,20
DA:524,20
DA:525,20
DA:522,20
DA:524,20
DA:525,20
DA:553,2
DA:555,2
DA:557,2
DA:558,2
DA:560,2
DA:561,2
DA:553,26766
DA:555,26766
DA:557,26766
DA:558,26766
DA:560,26766
DA:561,26766
DA:553,702
DA:555,702
DA:557,702
DA:558,702
DA:560,702
DA:561,702
DA:553,2954
DA:555,2954
DA:557,2954
DA:558,2954
DA:560,2954
DA:561,2954
DA:572,0
DA:572,7
DA:678,24
DA:680,24
DA:681,24
DA:683,24
DA:678,26786
DA:680,26786
DA:681,26786
DA:683,26786
DA:678,2981
DA:680,2981
DA:681,2981
DA:683,2981
DA:678,1
DA:680,1
DA:681,1
DA:683,1
DA:678,724
DA:680,724
DA:681,724
DA:683,724
DA:709,0
DA:711,0
DA:714,0
DA:715,0
DA:811,0
DA:812,0
DA:811,7
DA:812,7
DA:811,0
DA:812,0
DA:811,102
DA:812,102
DA:811,24
DA:812,24
DA:820,2
DA:821,2
DA:820,26766
DA:821,26766
DA:820,702
DA:821,702
DA:820,2954
DA:821,2954
DA:829,0
DA:830,0
DA:829,12107
DA:830,12107
DA:829,0
DA:830,0
DA:829,106
DA:830,106
DA:829,24
DA:830,24
DA:838,2
DA:839,2
DA:838,26766
DA:839,26766
DA:838,702
DA:839,702
DA:838,2954
DA:839,2954
DA:918,933
DA:919,933
DA:918,1520
DA:919,1520
DA:918,28566
DA:919,28566
DA:918,3154
DA:919,3154
DA:918,19529
DA:919,19529
DA:923,0
DA:924,0
DA:923,14
DA:924,14
DA:923,0
DA:924,0
DA:923,204
DA:924,204
DA:923,48
DA:924,48
DA:1043,240
DA:1046,240
DA:1043,3620
DA:1046,3620
DA:1043,37514
DA:1046,37514
DA:1043,124141
DA:1046,124141
DA:1043,125941
DA:1046,125941
DA:1061,2558
DA:1064,2558
DA:1061,2558
DA:1064,2558
DA:1143,4
DA:1146,4
DA:1143,0
DA:1146,0
DA:1143,0
DA:1146,0
DA:1143,12100
DA:1146,12100
DA:1187,0
DA:1189,0
DA:1192,0
DA:1194,0
DA:1198,0
DA:1199,0
DA:1187,180
DA:1189,180
DA:1192,80
DA:1194,80
DA:1198,100
DA:1199,180
DA:1187,764
DA:1189,764
DA:1192,740
DA:1194,740
DA:1198,24
DA:1199,764
DA:1203,4
DA:1204,4
DA:1203,0
DA:1204,0
DA:1203,0
DA:1204,0
DA:1203,12100
DA:1204,12100
DA:1498,2
DA:1499,2
DA:1498,0
DA:1499,0
DA:1498,0
DA:1499,0
DA:1498,703
DA:1499,703
DA:1498,703
DA:1499,703
DA:1593,20
DA:1595,20
DA:1596,20
DA:1597,20
DA:1598,20
DA:1593,20
DA:1595,20
DA:1596,20
DA:1597,20
DA:1598,20
DA:1756,0
DA:1758,0
DA:1759,0
DA:1761,0
DA:1762,0
DA:1756,7
DA:1758,7
DA:1759,0
DA:1761,7
DA:1762,7
DA:1756,0
DA:1758,0
DA:1759,0
DA:1761,0
DA:1762,0
DA:1756,102
DA:1758,102
DA:1759,0
DA:1761,102
DA:1762,102
DA:1756,24
DA:1758,24
DA:1759,0
DA:1761,24
DA:1762,24
DA:1767,20
DA:1769,20
DA:1770,0
DA:1772,20
DA:1767,20
DA:1769,20
DA:1770,0
DA:1772,20
DA:1776,14
DA:1781,14
DA:1783,14
DA:1784,14
DA:1776,204
DA:1781,204
DA:1783,204
DA:1784,204
DA:1776,48
DA:1781,48
DA:1783,48
DA:1784,48
DA:1776,20
DA:1781,20
DA:1783,20
DA:1784,20
DA:1776,20
DA:1781,20
DA:1783,20
DA:1784,20
DA:1792,2
DA:1794,2
DA:1796,2
DA:1797,2
DA:1798,2
DA:1801,2
DA:1792,0
DA:1794,0
DA:1796,0
DA:1797,0
DA:1798,0
DA:1801,0
DA:1792,0
DA:1794,0
DA:1796,0
DA:1797,0
DA:1798,0
DA:1801,0
DA:1792,703
DA:1794,703
DA:1796,682
DA:1797,682
DA:1798,682
DA:1801,703
DA:1792,703
DA:1794,703
DA:1796,682
DA:1797,682
DA:1798,682
DA:1801,703
DA:1815,0
DA:1817,0
DA:1818,0
DA:1819,0
DA:1820,0
DA:1821,0
LF:476
LH:365
end_of_record
SF:/usr/include/c++/11/bits/cpp_type_traits.h
FN:560,_ZSt12__miter_baseIN9__gnu_cxx17__normal_iteratorIPKiSt6vectorIiSaIiEEEEET_S8_
FNDA:4,_ZSt12__miter_baseIN9__gnu_cxx17__normal_iteratorIPKiSt6vectorIiSaIiEEEEET_S8_
FN:560,_ZSt12__miter_baseIN9__gnu_cxx17__normal_iteratorIPKcSt6vectorIcSaIcEEEEET_S8_
FNDA:53532,_ZSt12__miter_baseIN9__gnu_cxx17__normal_iteratorIPKcSt6vectorIcSaIcEEEEET_S8_
FNF:2
FNH:2
DA:560,4
DA:561,4
DA:560,53532
DA:561,53532
LF:4
LH:4
end_of_record
SF:/usr/include/c++/11/bits/stl_iterator_base_types.h
FN:238,_ZSt19__iterator_categoryIPcENSt15iterator_traitsIT_E17iterator_categoryERKS2_
FNDA:20,_ZSt19__iterator_categoryIPcENSt15iterator_traitsIT_E17iterator_categoryERKS2_
FN:238,_ZSt19__iterator_categoryIPKcENSt15iterator_traitsIT_E17iterator_categoryERKS3_
FNDA:0,_ZSt19__iterator_categoryIPKcENSt15iterator_traitsIT_E17iterator_categoryERKS3_
FNF:2
FNH:1
DA:238,20
DA:239,20
DA:238,0
DA:239,0
LF:4
LH:2
end_of_record
SF:/home/zhangyan/shudu-main/shudu5.h
FN:31,_ZN11SudokuMakerC2Ev
FNDA:1,_ZN11SudokuMakerC2Ev
FN:36,_ZN11SudokuMaker9initStateEv
FNDA:703,_ZN11SudokuMaker9initStateEv
FN:45,_ZN11SudokuMaker9addResultERSt6vectorIS0_IcSaIcEESaIS2_EE
FNDA:744,_ZN11SudokuMaker9addResultERSt6vectorIS0_IcSaIcEESaIS2_EE
FN:51,_ZN11SudokuMaker10reverseBitEiii
FNDA:81718,_ZN11SudokuMaker10reverseBitEiii
FN:61,_ZN11SudokuMaker11solveSudokuESt6vectorIS0_IcSaIcEESaIS2_EE
FNDA:682,_ZN11SudokuMaker11solveSudokuESt6vectorIS0_IcSaIcEESaIS2_EE
FN:83,_ZN11SudokuMaker3DFSERSt6vectorIS0_IcSaIcEESaIS2_EEi
FNDA:19501,_ZN11SudokuMaker3DFSERSt6vectorIS0_IcSaIcEESaIS2_EEi
FN:134,_ZN11SudokuMaker10checkBoardERKSt6vectorIS0_IcSaIcEESaIS2_EE
FNDA:20,_ZN11SudokuMaker10checkBoardERKSt6vectorIS0_IcSaIcEESaIS2_EE
FN:157,_ZN11SudokuMaker13generateBoardEib
FNDA:20,_ZN11SudokuMaker13generateBoardEib
FN:213,_ZN11SudokuMaker22generateRandomSequenceEv
FNDA:20,_ZN11SudokuMaker22generateRandomSequenceEv
FN:236,_ZN11SudokuMaker10copySquareERSt6vectorIS0_IcSaIcEESaIS2_EEiib
FNDA:80,_ZN11SudokuMaker10copySquareERSt6vectorIS0_IcSaIcEESaIS2_EEiib
FN:276,_Z8readFileNSt7__cxx1112basic_stringIcSt11char_traitsIcESaIcEEE
FNDA:0,_Z8readFileNSt7__cxx1112basic_stringIcSt11char_traitsIcESaIcEEE
FN:307,_Z9writeFileSt6vectorIS_IS_IcSaIcEESaIS1_EESaIS3_EERSt14basic_ofstreamIcSt11char_traitsIcEEi
FNDA:20,_Z9writeFileSt6vectorIS_IS_IcSaIcEESaIS1_EESaIS3_EERSt14basic_ofstreamIcSt11char_traitsIcEEi
FN:327,_Z5parseB5cxx11iPPc
FNDA:1,_Z5parseB5cxx11iPPc
FN:412,_Z12generateGameiiSt6vectorIiSaIiEERSt14basic_ofstreamIcSt11char_traitsIcEER11SudokuMakerb
FNDA:2,_Z12generateGameiiSt6vectorIiSaIiEERSt14basic_ofstreamIcSt11char_traitsIcEER11SudokuMakerb
FN:434,_Z16test_solveSudokuv
FNDA:0,_Z16test_solveSudokuv
FNF:15
FNH:13
DA:31,1
DA:32,1
DA:33,1
DA:34,1
DA:36,703
DA:38,703
DA:39,703
DA:40,703
DA:41,703
DA:42,703
DA:43,703
DA:45,744
DA:47,744
DA:48,744
DA:49,744
DA:51,81718
DA:53,81718
DA:55,81718
DA:56,81718
DA:57,81718
DA:58,81718
DA:61,682
DA:63,682
DA:64,6820
DA:66,61380
DA:68,55242
DA:70,12100
DA:74,43142
DA:75,43142
DA:79,682
DA:80,682
DA:83,19501
DA:85,19501
DA:87,744
DA:88,744
DA:90,18757
DA:91,18757
DA:92,18757
DA:93,18757
DA:94,106787
DA:96,88030
DA:98,18819
DA:99,18819
DA:100,18819
DA:101,18819
DA:103,88030
DA:104,88030
DA:134,20
DA:136,20
DA:137,200
DA:139,1800
DA:141,1620
DA:143,938
DA:144,938
DA:146,0
DA:148,938
DA:152,20
DA:157,20
DA:159,40
DA:160,20
DA:161,80
DA:163,60
DA:164,60
DA:165,60
DA:167,20
DA:168,20
DA:169,20
DA:170,20
DA:172,914
DA:174,894
DA:175,894
DA:176,894
DA:177,212
DA:178,682
DA:179,682
DA:181,682
DA:182,682
DA:183,0
DA:185,0
DA:189,0
DA:193,682
DA:195,682
DA:199,0
DA:203,20
DA:205,0
DA:208,40
DA:209,20
DA:213,20
DA:215,20
DA:216,20
DA:217,503
DA:219,483
DA:220,483
DA:222,303
DA:226,180
DA:227,180
DA:230,20
DA:231,0
DA:236,80
DA:238,80
DA:239,80
DA:240,80
DA:241,80
DA:243,40
DA:244,40
DA:245,40
DA:246,40
DA:247,40
DA:248,40
DA:250,320
DA:252,240
DA:254,60
DA:255,60
DA:256,60
DA:257,60
DA:258,60
DA:259,60
DA:263,180
DA:264,180
DA:265,180
DA:266,180
DA:267,180
DA:268,180
DA:271,80
DA:276,0
DA:278,0
DA:279,0
DA:280,0
DA:282,0
DA:283,0
DA:284,0
DA:286,0
DA:287,0
DA:289,0
DA:290,0
DA:291,0
DA:293,0
DA:295,0
DA:297,0
DA:300,0
DA:301,0
DA:303,0
DA:304,0
DA:305,0
DA:307,20
DA:309,40
DA:311,200
DA:313,1800
DA:315,1620
DA:317,180
DA:319,20
DA:321,20
DA:327,1
DA:329,1
DA:330,1
DA:331,1
DA:332,1
DA:333,1
DA:334,1
DA:336,3
DA:337,2
DA:338,2
DA:339,2
DA:340,2
DA:341,2
DA:343,2
DA:344,0
DA:345,0
DA:346,0
DA:347,0
DA:348,0
DA:350,0
DA:351,0
DA:352,0
DA:353,0
DA:354,0
DA:355,0
DA:356,0
DA:357,0
DA:359,0
DA:360,0
DA:361,0
DA:362,1
DA:363,1
DA:364,1
DA:365,0
DA:366,0
DA:368,1
DA:369,1
DA:370,1
DA:371,1
DA:372,1
DA:373,0
DA:374,0
DA:376,1
DA:377,1
DA:378,0
DA:379,0
DA:380,0
DA:381,0
DA:382,0
DA:383,0
DA:384,0
DA:385,0
DA:387,0
DA:388,0
DA:389,0
DA:391,0
DA:392,0
DA:393,0
DA:395,0
DA:396,0
DA:398,0
DA:399,0
DA:400,0
DA:401,0
DA:402,0
DA:403,0
DA:404,0
DA:406,2
DA:407,2
DA:408,1
DA:412,2
DA:414,22
DA:416,20
DA:417,20
DA:419,0
DA:423,20
DA:425,20
DA:426,20
DA:427,20
DA:428,20
DA:429,20
DA:430,2
DA:431,2
DA:434,0
DA:436,0
DA:437,0
DA:438,0
DA:439,0
DA:441,0
DA:443,0
DA:444,0
DA:446,0
DA:447,0
DA:449,0
LF:246
LH:164
end_of_record
SF:/usr/include/c++/11/bits/stl_iterator_base_funcs.h
FN:98,_ZSt10__distanceIPcENSt15iterator_traitsIT_E15difference_typeES2_S2_St26random_access_iterator_tag
FNDA:0,_ZSt10__distanceIPcENSt15iterator_traitsIT_E15difference_typeES2_S2_St26random_access_iterator_tag
FN:98,_ZSt10__distanceIPKcENSt15iterator_traitsIT_E15difference_typeES3_S3_St26random_access_iterator_tag
FNDA:0,_ZSt10__distanceIPKcENSt15iterator_traitsIT_E15difference_typeES3_S3_St26random_access_iterator_tag
FN:138,_ZSt8distanceIPcENSt15iterator_traitsIT_E15difference_typeES2_S2_
FNDA:0,_ZSt8distanceIPcENSt15iterator_traitsIT_E15difference_typeES2_S2_
FN:138,_ZSt8distanceIPKcENSt15iterator_traitsIT_E15difference_typeES3_S3_
FNDA:0,_ZSt8distanceIPKcENSt15iterator_traitsIT_E15difference_typeES3_S3_
FNF:4
FNH:0
DA:98,0
DA:104,0
DA:98,0
DA:104,0
DA:138,0
DA:141,0
DA:142,0
DA:138,0
DA:141,0
DA:142,0
LF:10
LH:0
end_of_record
